(dp0
S'/media/archivio/trasmissioni/Cinemando/17punt_25-01-2012/7) Elizabeth daily - Shake it up.mp3'
p1
F1327517615.738424
sS'/media/archivio/trasmissioni/powerchords/2012-01-25/Mr.Cab Driver.mp3'
p2
F1327525555.66251
sS'/media/archivio/trasmissioni/powerchords/Basi Definitive/lennybase1.mp3'
p3
F1327527688.287476
sS'/media/archivio/trasmissioni/ultima mezzora leo/14/12 Little Earthquakes.ogg'
p4
F1327539071.749562
sS'/media/archivio/trasmissioni/powerchords/Basi Definitive/metallicabase1.mp3'
p5
F1327528015.536516
sS'/media/archivio/trasmissioni/powerchords/Basi Definitive/redbase2.mp3'
p6
F1327524957.788489
sS'/media/archivio/trasmissioni/powerchords/Basi Definitive/lezbase2.mp3'
p7
F1327526893.807291
sS'/media/archivio/trasmissioni/powerchords/Basi Definitive/redbase1.mp3'
p8
F1327526115.68257
sS'/media/archivio/trasmissioni/ultima mezzora leo/14/01 Astral Weeks.mp3'
p9
F1327533270.966052
sS'/media/archivio/trasmissioni/powerchords/Basi Definitive/slashbase1.mp3'
p10
F1327524352.228877
sS'/media/archivio/trasmissioni/ultima mezzora leo/14/01 First Breath After Coma.ogg'
p11
F1327535760.073257
sS"/media/archivio/trasmissioni/Cinemando/17punt_25-01-2012/6) Amy Holland - She's on fire.mp3"
p12
F1327515012.369223
sS"/media/archivio/trasmissioni/powerchords/2012-01-25/4 - Summer of '69.mp3"
p13
F1327527892.843065
sS'/media/archivio/trasmissioni/powerchords/2012-01-25/Iron maiden - The Number Of The Beast.mp3'
p14
F1327527177.09038
sS'/media/archivio/trasmissioni/Rapsodia/Rapsodia2.0/2012-01-18_20-06-41.mp4'
p15
F1327523524.274804
sS'/media/archivio/trasmissioni/ultima mezzora leo/14/10 Simple Peal.ogg'
p16
F1327532846.241387
sS'/media/archivio/trasmissioni/powerchords/Basi Definitive/sigla/sigla_stereo.mp3'
p17
F1327523557.219615
sS'/media/archivio/trasmissioni/powerchords/film/blues2.mp3'
p18
F1327527188.200462
sS'/media/archivio/trasmissioni/ultima mezzora leo/14/01 Fractures.mp3'
p19
F1327534953.56151
sS'/media/archivio/trasmissioni/powerchords/2012-01-25/13 - Exodus.mp3'
p20
F1327528706.027772
sS"/media/archivio/trasmissioni/ultima mezzora leo/14/03 You Don't Have to Be Afraid.ogg"
p21
F1327533901.655334
sS'/media/archivio/trasmissioni/powerchords/2012-01-25/motorhead - rock out.mp3'
p22
F1327528140.929223
sS'/media/archivio/trasmissioni/ultima mezzora leo/14/04 Tonight the Sky (alternate version).ogg'
p23
F1327534355.614791
sS'/media/archivio/trasmissioni/powerchords/2012-01-25/Sonata_Arctica_Kingdom_For_a_Heart.mp3'
p24
F1327526341.227206
sS'/media/archivio/trasmissioni/powerchords/2012-01-25/chuck berry -  Memphis Tennessee.mp3'
p25
F1327525808.784954
sS'/media/archivio/trasmissioni/powerchords/2012-01-25/13_motley_crue_-_smokin_in_the_boys_room-xcell.mp3'
p26
F1327523792.637506
sS'/media/archivio/trasmissioni/powerchords/Basi Definitive/ozzybase1.mp3'
p27
F1327526032.339754
sS"/media/archivio/trasmissioni/Cinemando/17punt_25-01-2012/9) Elizabeth Daily - I'm hot tonight.mp3"
p28
F1327516185.192755
sS'/media/archivio/trasmissioni/Cinemando/17punt_25-01-2012/Scarface_scena_Il_litigio_tra_Elvira_e_Tony_al_ris.mp3'
p29
F1327514603.799006
sS'/media/archivio/trasmissioni/powerchords/2012-01-25/Litfiba - Colpo Di Coda (Disc 2) - 05 - El Diablo.mp3'
p30
F1327524182.023476
sS'/media/archivio/trasmissioni/Cinemando/17punt_25-01-2012/4) Maria conchita - Vamos a Bailar.mp3'
p31
F1327518019.79838
sS'/media/archivio/trasmissioni/powerchords/Basi Definitive/sistem1.mp3'
p32
F1327525330.802371
sS'/media/archivio/trasmissioni/ultima mezzora leo/14/08 Take Me as I Am.mp3'
p33
F1327533413.771471
sS'/media/archivio/trasmissioni/powerchords/Basi Definitive/alice1.mp3'
p34
F1327528254.290452
sS"/media/archivio/trasmissioni/ultima mezzora leo/14/05 L'amour.ogg"
p35
F1327535187.340045
sS'/media/archivio/trasmissioni/ultima mezzora leo/14/06 Patience.mp3'
p36
F1327534635.666571
sS'/media/archivio/trasmissioni/powerchords/2012-01-25/Monkey Business - Skidrow.mp3'
p37
F1327525212.886165
sS'/media/archivio/trasmissioni/ultima mezzora leo/14/06 Try, Try, Try.ogg'
p38
F1327536789.860169
sS'/media/archivio/trasmissioni/Cinemando/17punt_25-01-2012/Scarface Trailer HD (1983).mp3'
p39
F1327515585.181753
sS'/media/archivio/trasmissioni/Cinemando/17punt_25-01-2012/scarfuck.mp3'
p40
F1327516925.765799
sS'/media/archivio/trasmissioni/powerchords/Basi Definitive/zombie1.mp3'
p41
F1327525683.371253
sS'/media/archivio/trasmissioni/ultima mezzora leo/14/04 ...Even Though Youre With Another Girl (alternative instrumental version).mp3'
p42
F1327536481.019352
sS'/media/archivio/trasmissioni/ultima mezzora leo/14/03 M.ogg'
p43
F1327537010.969869
sS"/media/archivio/trasmissioni/Cinemando/17punt_25-01-2012/5) Giorgio Moroder - Tony's Theme.mp3"
p44
F1327516646.043046
sS'/media/archivio/trasmissioni/powerchords/Basi Definitive/lynyrd1.mp3'
p45
F1327527409.733245
sS'/media/archivio/trasmissioni/powerchords/film/iene1.mp3'
p46
F1327525601.503021
sS'/media/archivio/trasmissioni/powerchords/2012-01-25/Pearl Jam - The End.mp3'
p47
F1327527580.50837
sS'/media/archivio/trasmissioni/Cinemando/17punt_25-01-2012/8) Beth Endersen - Dance Dance Dance.mp3'
p48
F1327518019.591876
sS'/media/archivio/trasmissioni/ultima mezzora leo/14/03 Iambic 9 Poetry.m4a'
p49
F1327536176.915574
sS'/media/archivio/trasmissioni/powerchords/2012-01-25/Locanda delle Fate - Homo Homini Lupus - 06 - Stanotte Dio Che Cosa Fa.mp3'
p50
F1327524695.182189
sS'/media/archivio/trasmissioni/powerchords/Basi Definitive/acdcbase1.mp3'
p51
F1327526480.082422
sS'/media/archivio/trasmissioni/Cinemando/17punt_25-01-2012/2) Deborrah Harry - Rush Rush.mp3'
p52
F1327517820.81794
sS'/media/archivio/trasmissioni/powerchords/2012-01-25/06 - Hey You.mp3'
p53
F1327526753.302491
s.