(dp0
S'/media/archivio/trasmissioni/Sfasciacarrozze/2011-12-11/09 - The Drapery Falls (radio edit).mp3'
p1
F1323625188.857893
sS"/media/archivio/trasmissioni/all 90 long/Scaletta 2011 12 08/Oasis - D'you Know What I Mean.mp3"
p2
F1323382254.008208
sS'/media/archivio/trasmissioni/MONO/MONO 2011-12 - p.6 - 24.11.2011 - ULTIMA PUNTATA/Sottofondi/40-Ramones - Joey Ramone - What A Wonderful World (Louis Arm.mp3'
p3
F1322159777.75934
sS'/media/archivio/trasmissioni/caribbean vintage/Puntata Colonne sonore/Cool Runnings (Wailing Souls   Love You Want).mp3'
p4
F1322246973.789583
sS'/media/archivio/trasmissioni/ultima mezzora mario/21-11-2011/CSI - E Ti Vengo A Cercare.mp3'
p5
F1321919223.1489241
sS'/media/archivio/trasmissioni/Sfasciacarrozze/2011-11-20/05- Plush.mp3'
p6
F1321807772.5682781
sS'/media/archivio/trasmissioni/ultima mezzora mario/21-11-2011/Angelo Branduardi - Salmo.mp3'
p7
F1321920132.0660851
sS"/media/archivio/trasmissioni/GROOVIERA/22novembrewithandrew/04Nas - It Ain't Hard To Tell.mp3"
p8
F1321992523.2348051
sS'/media/archivio/trasmissioni/Alabama/programma 6/Sangue del mio sangue Brusco.mp3'
p9
F1322590520.3846409
sS'/media/archivio/trasmissioni/ultima mezzora mario/ultima/Dente-La Cena Di Addio.mp3'
p10
F1323128225.268332
sS'/media/archivio/trasmissioni/radiociclabile/ottava puntata/00 Angelique Kidjo - Little Boxes.mp3'
p11
F1322507436.254638
sS'/media/archivio/trasmissioni/all 90 long/Scaletta 2011 12 08/Effetti/Faithless - Muhammad Ali.mp3'
p12
F1323381792.5763111
sS'/media/archivio/trasmissioni/pendente/basi pendente/07 Quantanoia.mp3'
p13
F1322932352.6897061
sS'/media/archivio/trasmissioni/OrcoTrio/Puntata2x9/Jingles/Desert Sessions -  A Girl Like Me (PJ Harvey).mp3'
p14
F1323384094.76739
sS'/media/archivio/trasmissioni/Alabama/programma 3/10.wav'
p15
F1322593080.1482251
sS'/media/archivio/trasmissioni/I DisGuidi/Puntata 11 - 7 Dicembre.odt/Michael W. Smith - Hibernia.mp3'
p16
F1323276822.874474
sS'/media/archivio/trasmissioni/SoFia/13a WarGame/suoni/07_dead.wav'
p17
F1321829172.743068
sS'/media/archivio/trasmissioni/Cinemando/16punt_14-12-2011/03_Various Artists - What Is Fight Club.mp3'
p18
F1323888529.0647049
sS'/media/archivio/trasmissioni/Gli Spacciaserie/9a puntata bis/League - musica/Fooling April - The Way Back Down.mp3'
p19
F1322768555.1424711
sS'/media/archivio/trasmissioni/caribbean vintage/Puntata Colonne sonore/Junior Murvin   Police  Thieves.mp3'
p20
F1322249480.017725
sS'/media/archivio/trasmissioni/Mai dire cicletta/2011-12-12/Baustelle - Gomma.mp3'
p21
F1323713061.7170019
sS'/media/archivio/trasmissioni/Made in Italy/progressive italia/Banco del Mutuo Soccorso - 4 - Moby Dick.mp3'
p22
F1323191205.352798
sS'/media/archivio/trasmissioni/(phi)^3/28nov/You Make My Dreams.mp3'
p23
F1322511248.7054961
sS'/media/archivio/trasmissioni/Cinemando/13punt_23-10-2011/TRAILER.mp3'
p24
F1322071983.079917
sS'/media/archivio/trasmissioni/OrcoTrio/Puntata2x7/Ultima Mezzorca/The Brecker Brothers-African Skies.mp3'
p25
F1322178578.479414
sS'/media/archivio/trasmissioni/Pisa&Love/9 punt_4-12/4. The Darkness - Growing On Me.mp3'
p26
F1323030775.431608
sS'/media/archivio/trasmissioni/GROOVIERA/6dic/01Marvin Gaye - Just like Music.mp3'
p27
F1323202490.8254111
sS'/media/archivio/trasmissioni/LabNova/attualit\xc3\xa0 n.3/The Bad Plus - Karma Police.mp3'
p28
F1321813614.2966421
sS'/media/archivio/trasmissioni/caribbean vintage/Puntata Colonne sonore/Bunny Wailer Rockers.mp3'
p29
F1322250158.7127321
sS"/media/archivio/trasmissioni/Gli Spacciaserie/9a puntata bis/League - musica/Un\xc3\xb2rsomin\xc3\xb2re - Storia dell'uomo che vol\xc3\xb2 nello spazio del suo appartamento.mp3"
p30
F1322773351.1724889
sS'/media/archivio/trasmissioni/GROOVIERA/6dic/11- Frankie NRG MC - Il sonno della ragione.mp3.mp3'
p31
F1323205129.043386
sS'/media/archivio/trasmissioni/Rapsodia/Rapsodia2.0/puntata 11-30-2011 freddy mercury/queen/QUEEN - The Great Pretender(2).mp3'
p32
F1322683863.3400199
sS'/media/archivio/trasmissioni/Politicazzi/sigle/Door Bell&rlm;.mp3'
p33
F1323126070.778178
sS'/media/archivio/trasmissioni/Politicazzi/sigle/vanoni Vai.mp3'
p34
F1321916265.218827
sS"/media/archivio/trasmissioni/Pisa&Love/9 punt_4-12/3. The Beatles - A Hard Day's Night.mp3"
p35
F1323030250.227421
sS"/media/archivio/trasmissioni/MONO/MONO 2011-12 - p.6 - 24.11.2011 - ULTIMA PUNTATA/Sigla iniziale/Crowded House - Don't Dream It's Over.mp3"
p36
F1322154682.4938979
sS'/media/archivio/trasmissioni/pendente/2011-11-19/03 - Pizzica di Santu Vitu.mp3'
p37
F1321720843.0420339
sS'/media/archivio/trasmissioni/OrcoTrio/Puntata2x8/Ultima Mezzorca/Bonnie Prince billy - Sweeter than anything.mp3'
p38
F1322782104.3166549
sS'/media/archivio/trasmissioni/Bidoni/Puntata 2/jingles/Bosnian Nyan Cat (Bosnyan).mp3'
p39
F1322594476.1003089
sS'/media/archivio/trasmissioni/OrcoTrio/Puntata2x7/Musica/Pearl Jam Yellow Ledbetter.mp3'
p40
F1322175739.9517641
sS'/media/archivio/trasmissioni/Cinemando/15punt_07-12-2011/07 - Tenacious D - Master Exploder.mp3'
p41
F1323282721.32201
sS"/media/archivio/trasmissioni/GROOVIERA/martedi15/10Pusha T feat. Tyler, The Creator 'Trouble On My Mind' Offical Video.mp3"
p42
F1321389983.371866
sS'/media/archivio/trasmissioni/caribbean vintage/mondiska/17 - derrick morgan - blazing fire.mp3'
p43
F1322854540.8392551
sS'/media/archivio/trasmissioni/PLUG/2^STAGIONE/PLUG 5___TRIP HOP___/02 - Flutter.mp3'
p44
F1322515318.462363
sS'/media/archivio/trasmissioni/(phi)^3/5dic/Samples_RisataBambino.mp3'
p45
F1323117340.1171739
sS'/media/archivio/trasmissioni/SoFia/16a Pandoro&Panettone/Christmas-John Lennon - So This Is Christmas.mp3'
p46
F1323638440.5408101
sS'/media/archivio/trasmissioni/Pisa&Love/Musiche/Classifica - Benny Hill Theme.mp3'
p47
F1323636945.358691
sS'/media/archivio/trasmissioni/Suppostine/20111118/Caparezza  - 02._Nessuna_razza.mp3'
p48
F1321639510.4467199
sS'/media/archivio/trasmissioni/Ultima mezzora carlo/2011-11-20/Sad Violin.mp3'
p49
F1321831833.0223329
sS"/media/archivio/trasmissioni/pendente/2011-11-19/- 'E bolle d'a malvizza-M.mp3"
p50
F1321721886.4545071
sS'/media/archivio/trasmissioni/ultima mezzora leo/10/05 Medellia of the Gray Skies.ogg'
p51
F1322437479.6844921
sS'/media/archivio/trasmissioni/(phi)^3/28nov/01 I Feel the Earth Move.mp3'
p52
F1322511181.0938661
sS'/media/archivio/trasmissioni/Mai dire cicletta/2011-12-12/10-Must Be Santa.mp3'
p53
F1323712431.9370539
sS'/media/archivio/trasmissioni/Politicazzi/Politicazzi 8/PORNO cos\xc3\xac fan tutte .wav'
p54
F1321916921.729702
sS'/media/archivio/trasmissioni/pendente/2011-11-19/02 - Fimmene fimmene.mp3'
p55
F1321720191.613148
sS'/media/archivio/trasmissioni/Sfasciacarrozze/2011-11-27/08-Run to the Hills.mp3'
p56
F1322413929.753649
sS'/media/archivio/trasmissioni/all 90 long/Scaletta 2011 12 01/Sottofondi/The Beatles - Across The Universe.mp3'
p57
F1322776186.0704629
sS'/media/archivio/trasmissioni/Rapsodia/Rapsodia2.0/puntata queen 12-14-2011/Queen - Radio Ga Ga.mp3'
p58
F1323890950.1754539
sS'/media/archivio/trasmissioni/Alabama/programma con bene!!!/06-Sweet Emotion.mp3'
p59
F1321386107.45784
sS'/media/archivio/trasmissioni/caribbean vintage/puntata 11-11-11/Patrice -03- Up In My Room.mp3'
p60
F1321644637.9695859
sS'/media/archivio/trasmissioni/ultima mezzora mario/21-11-2011/Vinicio Capossela - Ovunque proteggi.mp3'
p61
F1321917889.9472511
sS'/media/archivio/trasmissioni/Suppostine/20111118/Make Your Own Kind Of Music - Mama Cass - .mp3'
p62
F1321640957.7111959
sS'/media/archivio/trasmissioni/caribbean vintage/puntata 11-11-11/Madness   Our House.mp3'
p63
F1321646088.3263559
sS'/media/archivio/trasmissioni/Pisa&Love/10 punt_11-12/4 - scrubs 2.mp3'
p64
F1323635779.2694781
sS'/media/archivio/trasmissioni/(phi)^3/5dic/Buddy Holly.mp3'
p65
F1323117210.9777801
sS'/media/archivio/trasmissioni/caribbean vintage/puntata cover/04 - Junior Byles Fever.mp3'
p66
F1321644062.4439909
sS'/media/archivio/trasmissioni/SoFia/14a Scarpa/Elvis_Presley_Blue_Suede_Shoes_With_Lyrics.mp3'
p67
F1322428844.012702
sS'/media/archivio/trasmissioni/radiociclabile/SECONDA SERIA/radui/04 - Sea Ghost .mp3'
p68
F1323719467.450491
sS'/media/archivio/trasmissioni/MONO/MONO 2011-12 - p.6 - 24.11.2011 - ULTIMA PUNTATA/Varie Rock/Triumph - Fight the Good Fight.mp3'
p69
F1322158052.3073499
sS'/media/archivio/trasmissioni/GROOVIERA/22novembrewithandrew/08 Concrete Schoolyardj5.mp3'
p70
F1321994134.3283579
sS'/media/archivio/trasmissioni/GROOVIERA/martedi15/11Mecna - Super (Video HD).mp3'
p71
F1321390187.3395121
sS'/media/archivio/trasmissioni/Sfasciacarrozze/2011-12-11/07. omosessualit\xc3\xa0.mp3'
p72
F1323622361.2469499
sS'/media/archivio/trasmissioni/Made in Italy/Made in Italy speciale New Wave/CCCP Fedeli alla linea - Fedele alla lira.mp3'
p73
F1321982564.4522021
sS'/media/archivio/trasmissioni/PLUG/2^STAGIONE/PLUG 6/02 Aerodynamic.mp3'
p74
F1321910658.8497341
sS"/media/archivio/trasmissioni/Alabama/programma con bene!!!/04 - Don't Drink The Water.mp3"
p75
F1321382672.642442
sS'/media/archivio/trasmissioni/GROOVIERA/martedi15/12Mos Def_ Ms Fat Booty -  Black On Both Sides(1).mp3'
p76
F1321390460.625993
sS'/media/archivio/trasmissioni/Mai dire cicletta/2011-12-05/muse - Supermassive Black Hole.mp3'
p77
F1323109491.0618961
sS'/media/archivio/trasmissioni/(phi)^3/5dic/Fly.mp3'
p78
F1323117661.6640921
sS'/media/archivio/trasmissioni/Politicazzi/sigle/Se penso a te - Franco Bracardi (sigla del Maurizio Costanzo Show)&rlm;.mp3'
p79
F1323123073.0096469
sS'/media/archivio/trasmissioni/OrcoTrio/Puntata2x9/Jingles/Pelican - Drought.mp3'
p80
F1323385339.6059749
sS'/media/archivio/trasmissioni/Alabama/programma con bene!!!/Led Zeppelin  - Communication breakdown.mp3'
p81
F1321384129.314719
sS'/media/archivio/trasmissioni/Mai dire cicletta/2011-11-21/depeche_mode-enjoy_the_silence.mp3'
p82
F1321896278.8865621
sS'/media/archivio/trasmissioni/Made in Italy/Made in Italy speciale New Wave/FRIGIDAIRE TANGO vanity fair.mp3'
p83
F1321984517.40046
sS'/media/archivio/trasmissioni/ultima mezzora leo/12/20 She.ogg'
p84
F1323904800.970732
sS'/media/archivio/trasmissioni/OrcoTrio/Puntata2x9/Jingles/Depeche Mode - Black Celebration.mp3'
p85
F1323387254.1702361
sS'/media/archivio/trasmissioni/caribbean vintage/puntata 11-11-11/Zion Train - Love Revolutionary.mp3'
p86
F1321645796.6327331
sS'/media/archivio/trasmissioni/Made in Italy/speciale cantautori/Lucio Battisti - Questione Di Cellule.mp3'
p87
F1322588055.570226
sS'/media/archivio/trasmissioni/OrcoTrio/Puntata2x9/UM/Black Tape for a Blue Girl - Fin de siecle.mp3'
p88
F1323387182.118192
sS'/media/archivio/trasmissioni/Bidoni/puntata 4/Imagine - (Italian Version) Gino Paoli.mp3'
p89
F1323199370.2685349
sS'/media/archivio/trasmissioni/(phi)^3/17ott/1-03 Messa da Requiem (1995 Digital.mp3'
p90
F1321906244.9946611
sS'/media/archivio/trasmissioni/all 90 long/Scaletta 2011 12 08/02 - Hangar 18.mp3'
p91
F1323379261.394114
sS'/media/archivio/trasmissioni/pendente/2011-12-03/Domenico Modugno - Amara terra mia.mp3'
p92
F1322927510.541522
sS'/media/archivio/trasmissioni/SoFia/15a Estintori/Iron maiden_-_quest_for_fire.mp3'
p93
F1323034250.140142
sS'/media/archivio/trasmissioni/Gli Spacciaserie/9a puntata bis/League - spezzoni/11_Andrericevetrofeoefinale.ogg'
p94
F1322771894.902036
sS'/media/archivio/trasmissioni/OrcoTrio/Puntata2x8/Jingles/ Supertramp -Breakfast In America.mp3'
p95
F1322779827.75067
sS'/media/archivio/trasmissioni/giochi_infanti/01 Amours.wma'
p96
F1322420366.883822
sS'/media/archivio/trasmissioni/PLUG/plu6_set_eq.wav'
p97
F1321913276.68752
sS'/media/archivio/trasmissioni/Sfasciacarrozze/Puntata 4/00 - Bark At The Moon.mp3'
p98
F1322412162.2410281
sS'/media/archivio/trasmissioni/Made in Italy/Made in Italy speciale New Wave/Gaznevada - Going underground.mp3'
p99
F1321984190.2380879
sS'/media/archivio/trasmissioni/(phi)^3/5dic/Questione di logica deduttiva - Sfer.mp3'
p100
F1323118647.433372
sS'/media/archivio/trasmissioni/OrcoTrio/Puntata2x7/Jingles/Nirvana - Smells Like Teen Spirit.mp3'
p101
F1322173432.5355799
sS'/media/archivio/trasmissioni/OrcoTrio/Puntata2x7/Musica/sigla_OrcoTrio.mp3'
p102
F1322172962.3169651
sS'/media/archivio/trasmissioni/ScrapJazz/spool/gianluigi trovesi with rava/05 Traccia 5.wma'
p103
F1323211986.291805
sS'/media/archivio/trasmissioni/Pisa&Love/8 punt_27-11/2. Scrubs - JD lascia Danny n.1.mp3'
p104
F1322424730.47527
sS'/media/archivio/trasmissioni/GROOVIERA/martedi15/08george watsky  Ragazzo fa Rap pi\xc3\xb9 veloce del mondo.mp3'
p105
F1321389483.3543561
sS'/media/archivio/trasmissioni/PLUG/2^STAGIONE/PLUG 7/jingle__THIS IS PLUG.mp3'
p106
F1322516082.794843
sS'/media/archivio/trasmissioni/caribbean vintage/puntata cover/13 - Easy Star All-Stars - Money.mp3'
p107
F1321643816.761816
sS'/media/archivio/trasmissioni/Suppostine/20111118/K-Pax - Soundtrack - 01 - Grand Central.mp3'
p108
F1321640267.8668611
sS'/media/archivio/trasmissioni/MONO/MONO 2011-12 - p.6 - 24.11.2011 - ULTIMA PUNTATA/Varie Rock/Jimi Hendrix - Night Life.mp3'
p109
F1322161255.7133341
sS'/media/archivio/trasmissioni/Rapsodia/Rapsodia2.0/puntata 11-23-2011/Baustelle - Charlie fa surf (video clip).mp3'
p110
F1322077808.3523669
sS'/media/archivio/trasmissioni/Gli Spacciaserie/9a puntata bis/League - musica/MAGNETO - SHOOTING STAR.mp3'
p111
F1322772549.9133639
sS'/media/archivio/trasmissioni/(phi)^3/21nov/Samples_Applausi.mp3'
p112
F1321909027.547564
sS'/media/archivio/trasmissioni/(phi)^3/21nov/01 Gloria in excelsis deo.mp3'
p113
F1321907789.961256
sS'/media/archivio/trasmissioni/SoFia/15a Estintori/Bullet For My Valentine - Scream Aim Fire.mp3'
p114
F1323035130.3024769
sS'/media/archivio/trasmissioni/PLUG/2^STAGIONE/PLUG 8/01. Peter Gabriel - The Rythm Of The Heat.mp3'
p115
F1323120446.8123159
sS'/media/archivio/trasmissioni/Alabama/programma4/01 fiorecr\xc3\xac.mp3'
p116
F1322589862.6183679
sS'/media/archivio/trasmissioni/Sfasciacarrozze/2011-11-20/La Sfasciasigla.mp3'
p117
F1321812115.4217091
sS'/media/archivio/trasmissioni/scrapjazz/turnaround - sound grammar.MP3'
p118
F1322003031.0739541
sS'/media/archivio/trasmissioni/(phi)^3/5dic/Fly Me To The Moon.mp3'
p119
F1323117611.1950619
sS'/media/archivio/trasmissioni/Mai dire cicletta/2011-12-12/Zucchero - Vedo Nero.mp3'
p120
F1323716057.668751
sS'/media/archivio/trasmissioni/Mai dire cicletta/2011-11-28/Rammstein - Ich Tu Dir Weh.mp3'
p121
F1322503005.054523
sS'/media/archivio/trasmissioni/Bidoni/Puntata 1/jingle/05-active_child-high_priestess.mp3'
p122
F1323199077.7864571
sS"/media/archivio/trasmissioni/caribbean vintage/c/Dennis Bovell   Beefy's Tune   Babylon OST LP  Chrysalis.mp3"
p123
F1322853442.4018221
sS'/media/archivio/trasmissioni/LabNova/SEASON II/playlisy n.3/Kansas - Carry On My Wayward Son.mp3'
p124
F1322419127.059083
sS'/media/archivio/trasmissioni/I DisGuidi/Puntata 11 - 7 Dicembre.odt/Grand Soleil il nettare degli Dei.mp3'
p125
F1323278130.9041159
sS'/media/archivio/trasmissioni/powerchords/2011-12-14_ultimapuntata/Scorpions - Raised on Rock.mp3'
p126
F1323895280.5683429
sS'/media/archivio/trasmissioni/Ultima mezzora carlo/2011-12-04/Lamb - My Angel Gabriel.mp3'
p127
F1323041487.6575179
sS'/media/archivio/trasmissioni/powerchords/2011-12-14_ultimapuntata/Green Day -  Good Riddance (Time Of Your Life).mp3'
p128
F1323898778.62462
sS'/media/archivio/trasmissioni/radiociclabile/SECONDA SERIA/6 Sospiri/03) Ella baila con todos (Luzbelito) - Los Redondos (subtitulado).mp3'
p129
F1321903305.2834091
sS'/media/archivio/trasmissioni/(phi)^3/5dic/02 Luna.mp3'
p130
F1323117136.0077751
sS'/media/archivio/trasmissioni/(phi)^3/5dic/03 Spaceman.mp3'
p131
F1323118929.1270471
sS'/media/archivio/trasmissioni/Politicazzi/Politicazzi NONNA/05Paradise.m4a'
p132
F1322520247.724932
sS'/media/archivio/trasmissioni/ScrapJazz/spool/02 Take The Coltrane.m4a'
p133
F1323209454.5807569
sS'/media/archivio/trasmissioni/radiociclabile/ottava puntata/01 Malvina Reynolds - The Faucets Are Dripping.mp3'
p134
F1322510683.681972
sS'/media/archivio/trasmissioni/Gli Spacciaserie/9a puntata bis/League - spezzoni/01_girodraft.ogg'
p135
F1322767935.0099421
sS'/media/archivio/trasmissioni/Mai dire cicletta/2011-12-05/up patriots to arms - Subsonica _ Battiato.mp3'
p136
F1323108762.6882811
sS'/media/archivio/trasmissioni/Bidoni/Puntata 3/Beatallica - All You Need is Blood (American English Version).mp3'
p137
F1321384689.8142321
sS'/media/archivio/trasmissioni/Made in Italy/PUNK 2 radiocicletta/il posto dove vivo.mp3'
p138
F1321378822.81727
sS'/media/archivio/trasmissioni/Sfasciacarrozze/2011-12-11/01 - Black Dog.mp3'
p139
F1323622035.1532869
sS'/media/archivio/trasmissioni/Alabama/programma con bene!!!/12-Mama Kin.mp3'
p140
F1321383368.849648
sS"/media/archivio/trasmissioni/GROOVIERA/6dic/05Amy Winehouse & Ghostface Killah -You Know I'm No Good Remix.mp3"
p141
F1323203546.1540639
sS'/media/archivio/trasmissioni/Made in Italy/progressive italia/Salis Addio - Salis.mp3'
p142
F1323194310.8261361
sS'/media/archivio/trasmissioni/powerchords/Basi Definitive/redbase1.mp3'
p143
F1323895726.2687459
sS'/media/archivio/trasmissioni/ScrapJazz/spool/03 Bemsha Swing.m4a'
p144
F1323209972.9440169
sS'/media/archivio/trasmissioni/radiociclabile/SECONDA SERIA/6 Sospiri/Pearl Jam - 04 - Tremor Christ - Vitalogy.MP3'
p145
F1321905330.3356841
sS'/media/archivio/trasmissioni/Alabama/programma 3/09.mp3'
p146
F1322592814.465215
sS'/media/archivio/trasmissioni/LabNova/SEASON II/playlisy n.3/The Beatles [2009] Greatest Hits CDRip [Remastered][Bubanee]/12 yellow subarine.mp3'
p147
F1322419489.4312191
sS'/media/archivio/trasmissioni/MONO/MONO 2011-12 - p.6 - 24.11.2011 - ULTIMA PUNTATA/Sottofondi/44-Vue - Pictures of Me.mp3'
p148
F1322155950.1614881
sS'/media/archivio/trasmissioni/Rapsodia/Rapsodia2.0/puntata 11-30-2011 freddy mercury/Queen - Innuendo.mp3'
p149
F1322685133.9395461
sS'/media/archivio/trasmissioni/Sfasciacarrozze/2011-11-20/07 - Red Hot Chili Peppers - Easily.mp3'
p150
F1321808627.2018449
sS'/media/archivio/trasmissioni/GROOVIERA/6dic/10letmedown(edit)(1).mp3'
p151
F1323204839.9849761
sS'/media/archivio/trasmissioni/OrcoTrio/Puntata2x8/Musica/Radiohead - Myxomatosis.mp3'
p152
F1322780858.7291441
sS"/media/archivio/trasmissioni/Mai dire cicletta/2011-11-28/Guns 'n Roses - Nightrain.mp3"
p153
F1322501936.2686341
sS'/media/archivio/trasmissioni/powerchords/film/blues2.mp3'
p154
F1323899163.1405931
sS"/media/archivio/trasmissioni/GROOVIERA/29nov/01Wu Tang Clan Ain't nothing to fuck with.mp3"
p155
F1322597667.2812991
sS'/media/archivio/trasmissioni/all 90 long/Scaletta 2011 11 24/Sottofondi/16 - Cassius 1999 [Remix] [Radio Edit].mp3'
p156
F1322171748.2085991
sS'/media/archivio/trasmissioni/Politicazzi/sigle/bracardi/Bracardi - tagliana bella prrr.mp3'
p157
F1321915452.531425
sS'/media/archivio/trasmissioni/all 90 long/Scaletta 2011 12 08/Effetti/Rocky Full Theme Tune.mp3'
p158
F1323381085.8908401
sS'/media/archivio/trasmissioni/MONO/zedge-voice-maker-8425 welcome to mono.mp3'
p159
F1322154443.6246519
sS'/media/archivio/trasmissioni/LabNova/SEASON II/playlisy n.3/The Beatles [2009] Greatest Hits CDRip [Remastered][Bubanee]/13 your going to lose that girl.mp3'
p160
F1322419626.2903049
sS'/media/archivio/trasmissioni/Sfasciacarrozze/2011-12-4/Benedais - Demo - kalle princesa.mp3'
p161
F1323018206.2538769
sS'/media/archivio/trasmissioni/ultima mezzora leo/11/06 Moon River.mp3'
p162
F1323302384.712358
sS'/media/archivio/trasmissioni/radiociclabile/SECONDA SERIA/radui/01 - Glamourous.mp3'
p163
F1323717067.9017329
sS'/media/archivio/trasmissioni/(phi)^3/14nov/Session.mp3'
p164
F1321908812.3401151
sS'/media/archivio/trasmissioni/Cinemando/15punt_07-12-2011/03 - Tenacious D - Baby.mp3'
p165
F1323284199.418416
sS'/media/archivio/trasmissioni/Ultima mezzora carlo/2011-12-11/Jim Morrison & The Doors - Bird Of Prey.mp3'
p166
F1323645684.5045371
sS'/media/archivio/trasmissioni/Politicazzi/sigle/bracardi/Bracardi - affangalabaudo.mp3'
p167
F1322519334.3471861
sS'/media/archivio/trasmissioni/PLUG/2^STAGIONE/PLUG 6/02-motel_connection-uppercut.mp3'
p168
F1321911763.4304819
sS'/media/archivio/trasmissioni/Ultima mezzora carlo/2011-12-11/05-Razzi arpia inferno e fiamme.mp3'
p169
F1323644768.471535
sS'/media/archivio/trasmissioni/I DisGuidi/Puntata Tedesca - 30 Novembre/Povero vecchio diavolo - Mario Castellacci & Michele Paulicelli.mp3'
p170
F1322674046.6813581
sS'/media/archivio/trasmissioni/OrcoTrio/Puntata2x8/Jingles/CCCP Fedeli Alla Linea - A ja ljublju SSSR.mp3'
p171
F1322777472.3938291
sS'/media/archivio/trasmissioni/Gli Spacciaserie/9a puntata bis/League - spezzoni/03_cambiodraftinprigione.ogg'
p172
F1322768845.6345041
sS'/media/archivio/trasmissioni/(phi)^3/5dic/Star Trek The Next Generation Sigla.mp3'
p173
F1323119060.4798989
sS'/media/archivio/trasmissioni/PLUG/2^STAGIONE/PLUG 8/12. A Celtic Tale.mp3'
p174
F1323121232.020525
sS'/media/archivio/trasmissioni/ultima mezzora leo/10/2-11 Lotus Flower (SBTRKT remix).mp3'
p175
F1322438937.0913899
sS'/media/archivio/trasmissioni/Sfasciacarrozze/2011-11-20/Track 05 - Cemetery gates.mp3'
p176
F1321812100.8327739
sS'/media/archivio/trasmissioni/Cinemando/16punt_14-12-2011/05_Various Artists - Corporate World.mp3'
p177
F1323888692.366899
sS'/media/archivio/trasmissioni/Pisa&Love/7 punt_20-11/7. Sex and the City - Il coniglio.mp3'
p178
F1321823575.2632599
sS'/media/archivio/trasmissioni/Bidoni/Puntata 1/jingle/Gianni Drudi - Tirami su la banana col bacio.mp3'
p179
F1323198750.9630859
sS'/media/archivio/trasmissioni/Politicazzi/PoliticazziDieci/04-Antonello Venditti-La ragazza del luned\xc3\xac (Silvio).mp3'
p180
F1323124502.9924469
sS'/media/archivio/trasmissioni/Gli Spacciaserie/9a puntata bis/League - musica/The Shore - On the Way.mp3'
p181
F1322773012.6662459
sS'/media/archivio/trasmissioni/ultima mezzora mario/ultima/07 Eddie Vedder - Goodbye.mp3'
p182
F1323127238.646409
sS'/media/archivio/trasmissioni/Gli Spacciaserie/Basi/Base serissima Falling skies.mp3'
p183
F1322162487.496284
sS'/media/archivio/trasmissioni/Politicazzi/sigle/Trololo Sing Along!.mp3'
p184
F1323126678.195085
sS"/media/archivio/trasmissioni/Rapsodia/Rapsodia2.0/puntata 11-30-2011 freddy mercury/queen/9. freddie mercury [mercoled\xc3\xac 30 novembre '11]/under pressure - queen & david bowie.mp3"
p185
F1322682768.7361269
sS'/media/archivio/trasmissioni/(phi)^3/5dic/Two Princess.mp3'
p186
F1323118160.1067619
sS'/media/archivio/trasmissioni/Mai dire cicletta/base/Samba de Janeiro base.mp3'
p187
F1323712840.0882249
sS"/media/archivio/trasmissioni/Mai dire cicletta/2011-11-28/THE FAITH KEEPERS - Don't Worry 'Bout Later.mp3"
p188
F1323111832.642154
sS'/media/archivio/trasmissioni/all 90 long/Scaletta 2011 12 08/05-Perfect Crime.mp3'
p189
F1323378517.0599511
sS'/media/archivio/trasmissioni/ultima mezzora leo/11/08 Save a Prayer.ogg'
p190
F1323301633.3680339
sS'/media/archivio/trasmissioni/Sfasciacarrozze/sottofondo/Metallica - 02 - Master of Puppets.mp3'
p191
F1323624883.0627649
sS'/media/archivio/trasmissioni/Pisa&Love/Musiche/Sottofondo - Don Ross - Michael, Michael, Michael.mp3'
p192
F1323636861.758378
sS'/media/archivio/trasmissioni/SoFia/14a Scarpa/Sonata Artica - Die with your boots on.mp3'
p193
F1322430044.6176641
sS'/media/archivio/trasmissioni/MONO/MONO 2011-12 - p.6 - 24.11.2011 - ULTIMA PUNTATA/Varie Soundtrack/THE CRAFT - Spacehog - The Horror.mp3'
p194
F1322157111.38993
sS'/media/archivio/trasmissioni/(phi)^3/5dic/Il motore a improbabilit\xc3\xa0 infinita.mp3'
p195
F1323117432.606293
sS'/media/archivio/trasmissioni/(phi)^3/5dic/Galaxy Express 999 - 000 - Sigla Italiana.mp3'
p196
F1323118150.274318
sS'/media/archivio/trasmissioni/PLUG/2^STAGIONE/PLUG 6/06 Swoon.mp3'
p197
F1321911021.4859779
sS'/media/archivio/trasmissioni/OrcoTrio/Puntata2x8/Jingles/RATM - Year Of Tha Boomerang.mp3'
p198
F1322778767.6870019
sS'/media/archivio/trasmissioni/all 90 long/Scaletta 2011 10 27/effetti/sigla_chiusura.mp3'
p199
F1323382266.921273
sS'/media/archivio/trasmissioni/MONO/MONO 2011-12 - p.6 - 24.11.2011 - ULTIMA PUNTATA/Sottofondi/Booker T and The MGs - Green Onions.mp3'
p200
F1322156824.300873
sS"/media/archivio/trasmissioni/Politicazzi/Politicazzi 8/10 ramones It's Gonna Be Alright.mp3"
p201
F1321914987.5229621
sS'/media/archivio/trasmissioni/SoFia/15a Estintori/Yngwie J. Malmsteen\xc2\xb4s Rising Force - 15 - Air (Instrumental).mp3'
p202
F1323032769.3486619
sS'/media/archivio/trasmissioni/Ultima mezzora carlo/2011-11-20/AVION TRAVEL Dormi e Sogna.mp3'
p203
F1321830815.5535851
sS'/media/archivio/trasmissioni/Ultima mezzora carlo/2011-12-11/18 Skeeter Davis - The End of the World.mp3'
p204
F1323645250.7470391
sS'/media/archivio/trasmissioni/Sfasciacarrozze/2011-11-20/05-machine_gun_blues.mp3'
p205
F1321807022.4649651
sS'/media/archivio/trasmissioni/powerchords/film/noi siamo quella razza - Berlinguer ti voglio bene.mp3'
p206
F1322688830.385155
sS'/media/archivio/trasmissioni/caribbean vintage/puntata 11-11-11/alborosie & etana - blessings.mp3'
p207
F1321642307.4177279
sS'/media/archivio/trasmissioni/OrcoTrio/Puntata2x7/Jingles/Desert Sessions - Polly Wants A Crack Rock.mp3'
p208
F1322174885.6701601
sS'/media/archivio/trasmissioni/GROOVIERA/martedi15/07Common ft. Pharrell Universal Mind Control.mp3'
p209
F1321389358.319227
sS'/media/archivio/trasmissioni/OrcoTrio/Puntata2x8/Jingles/Van Morrison  - Moondance.mp3'
p210
F1322777125.606462
sS'/media/archivio/trasmissioni/Sfasciacarrozze/2011-11-20/02-acdc-shoot_to_thrill-h8me.mp3'
p211
F1321809051.795433
sS'/media/archivio/trasmissioni/Mai dire cicletta/2011-11-21/led zeppelin - Four Sticks.mp3'
p212
F1321897562.4909289
sS'/media/archivio/trasmissioni/Pisa&Love/9 punt_4-12/8. The Offspring - Hit That.mp3'
p213
F1323032496.9521091
sS'/media/archivio/trasmissioni/all 90 long/Scaletta 2011 11 03/sigla ita.mp3'
p214
F1322168821.0301609
sS'/media/archivio/trasmissioni/ScrapJazz/spool/00 - Tenthirty Returns To The Bedroom.mp3'
p215
F1323212716.1601391
sS'/media/archivio/trasmissioni/Made in Italy/progressive italia/PFM Storia Di Un Minuto - 06 La Carroza Di Hans.mp3'
p216
F1323192327.8539529
sS'/media/archivio/trasmissioni/Pisa&Love/10 punt_11-12/3 - Tony Tammaro - Tien e Corn.mp3'
p217
F1323635355.32338
sS'/media/archivio/trasmissioni/Gli Spacciaserie/giovedifilm3.mp3'
p218
F1322766090.541338
sS'/media/archivio/trasmissioni/ultima mezzora leo/11/09 My World Is Empty Without You.mp3'
p219
F1323301306.699126
sS'/media/archivio/trasmissioni/ultima mezzora mario/ultima/Perturbazione - 06 - Arrivederci addio.mp3'
p220
F1323130482.161922
sS'/media/archivio/trasmissioni/Cinemando/16punt_14-12-2011/01_Various Artists - Who Is Tyler Durden.mp3'
p221
F1323888988.204567
sS'/media/archivio/trasmissioni/Ultima mezzora carlo/2011-11-20/Pink Floyd - Shine On You Crazy Diamond - full version first part.mp3'
p222
F1321832638.0360489
sS'/media/archivio/trasmissioni/MONO/MONO 2011-12 - p.6 - 24.11.2011 - ULTIMA PUNTATA/Varie Soundtrack/KILL BILL (Vol.1) - Tomoyasu Hotei - Battle Without Honor Or Humanity.mp3'
p223
F1322155216.0024519
sS"/media/archivio/trasmissioni/Rapsodia/Rapsodia2.0/puntata queen 12-14-2011/Queen - It's A Beautiful Day.mp3"
p224
F1323892618.4790559
sS'/media/archivio/trasmissioni/GROOVIERA/martedi15/01DJ Shadow - Six Days.mp3'
p225
F1321387872.8742051
sS'/media/archivio/trasmissioni/Mai dire cicletta/2011-12-05/The Cure - Just Like Heaven.mp3'
p226
F1323111348.4251161
sS'/media/archivio/trasmissioni/powerchords/Basi Definitive/acdcbase1.mp3'
p227
F1322685301.0064809
sS'/media/archivio/trasmissioni/Sfasciacarrozze/2011-11-27/1_doublemalt.mp3'
p228
F1322413049.1468661
sS"/media/archivio/trasmissioni/pendente/basi pendente/09 Fuochi d'Artificio.mp3"
p229
F1322928790.926887
sS'/media/archivio/trasmissioni/Pisa&Love/7 punt_20-11/4. The Cure - The End Of The World.mp3'
p230
F1321821669.6142581
sS"/media/archivio/trasmissioni/Rapsodia/Rapsodia2.0/puntata 11-30-2011 freddy mercury/The Prophet's Song - Lyrics.mp3"
p231
F1322681110.0672109
sS'/media/archivio/trasmissioni/(phi)^3/28nov/The Imperial March (Darth Vade.mp3'
p232
F1322512478.564167
sS'/media/archivio/trasmissioni/ScrapJazz/spool/gianluigi trovesi with rava/01 Traccia 1.wma'
p233
F1323209169.8590269
sS'/media/archivio/trasmissioni/Politicazzi/Politicazzi NONNA/01 - the verve - Bittersweet Symphony.mp3'
p234
F1322518384.0199051
sS'/media/archivio/trasmissioni/OrcoTrio/Puntata2x9/Jingles/Dead Can Dance - Black Sun.mp3'
p235
F1323383622.3102939
sS'/media/archivio/trasmissioni/Gli Spacciaserie/9a puntata bis/League - spezzoni/10_AtrovareShiva.ogg'
p236
F1322771337.27772
sS"/media/archivio/trasmissioni/PLUG/1^STAGIONE/plug 5/SOTTOFONDO/Electric Counterpoint III. Fast - RYXP's Milde Salve.mp3"
p237
F1322516078.4257989
sS'/media/archivio/trasmissioni/ultima mezzora mario/ultima/Song to say goodbye.mp3'
p238
F1323129742.779228
sS'/media/archivio/trasmissioni/all 90 long/Scaletta 2011 12 01/06-incubus-stellar-dnr.mp3'
p239
F1322776534.6366589
sS'/media/archivio/trasmissioni/all 90 long/Scaletta 2011 12 01/1 - 02 - Astronomy Domine.mp3'
p240
F1322774002.84465
sS'/media/archivio/trasmissioni/MONO/MONO 2011-12 - p.6 - 24.11.2011 - ULTIMA PUNTATA/Sottofondi/36-Bad Company.mp3'
p241
F1322160053.758585
sS'/media/archivio/trasmissioni/Cinemando/15punt_07-12-2011/intro.mp3'
p242
F1323281156.7746539
sS'/media/archivio/trasmissioni/Alabama/programma 5/Ami Noise   Se chiudo gli occhi   cd trailer 2011.mp3'
p243
F1321381179.9686811
sS'/media/archivio/trasmissioni/scrapjazz/03 the good life.MP3'
p244
F1322001601.1827259
sS'/media/archivio/trasmissioni/Bidoni/Puntata 3/Fred Buscaglione - Che notte (1959).mp3'
p245
F1321385325.4321129
sS'/media/archivio/trasmissioni/OrcoTrio/Puntata2x8/Musica/Portishead - Machine Gun.mp3'
p246
F1322778192.3904359
sS'/media/archivio/trasmissioni/MONO/MONO 2011-12 - p.6 - 24.11.2011 - ULTIMA PUNTATA/Varie Rock/X - The New World.mp3'
p247
F1322160396.44277
sS'/media/archivio/trasmissioni/MONO/MONO 2011-12 - p.6 - 24.11.2011 - ULTIMA PUNTATA/Varie Soundtrack/SHERLOCK HOLMES - The_Dubliners - The_rocky_road_to_Dublin.mp3'
p248
F1322155940.4282091
sS'/media/archivio/trasmissioni/pendente/basi pendente/04 Ad Libitum.mp3'
p249
F1322930042.517596
sS'/media/archivio/trasmissioni/(phi)^3/28nov/The World Is Outside.mp3'
p250
F1322511703.3271811
sS'/media/archivio/trasmissioni/MONO/MONO 2011-12 - p.6 - 24.11.2011 - ULTIMA PUNTATA/Sottofondi/36-Herb Albert - Green peppers.mp3'
p251
F1322161304.1865709
sS'/media/archivio/trasmissioni/radiociclabile/decima puntata/0.Malvina Reynolds -- Little Boxes.mp3'
p252
F1321902907.4178369
sS'/media/archivio/trasmissioni/LabNova/sigla.mp3'
p253
F1321812290.6512761
sS'/media/archivio/trasmissioni/OrcoTrio/Puntata2x7/Jingles/The Doors -  Roadhouse Blues.mp3'
p254
F1322175316.934001
sS'/media/archivio/trasmissioni/Politicazzi/Politicazzi NONNA/PORNO-LINGUE.mp3'
p255
F1322521237.4190221
sS'/media/archivio/trasmissioni/OrcoTrio/Puntata2x9/UM/Jingles/She Wants Revenge - Take The World.mp3'
p256
F1323386815.0839429
sS'/media/archivio/trasmissioni/Politicazzi/Politicazzi 8/09 zucchero chocabeck.mp3'
p257
F1321915759.353349
sS'/media/archivio/trasmissioni/GROOVIERA/6dic/12Dj Lugi - Robin Hood sindaco.mp3'
p258
F1323205408.7442529
sS'/media/archivio/trasmissioni/Politicazzi/PoliticazziDieci/03-Adriano Celentano-La Cumbia Di Chi Cambia.mp3'
p259
F1323126045.0942979
sS'/media/archivio/trasmissioni/Pisa&Love/9 punt_4-12/2. Audio introduzione puritani.mp3'
p260
F1323029871.440655
sS'/media/archivio/trasmissioni/caribbean vintage/Puntata Colonne sonore/ooh aah   fabulous five.mp3'
p261
F1322247334.708272
sS'/media/archivio/trasmissioni/MONO/MONO 2011-12 - p.6 - 24.11.2011 - ULTIMA PUNTATA/Sigla finale/Bad Company - She Brings Me Love.mp3'
p262
F1322161581.81845
sS'/media/archivio/trasmissioni/MONO/MONO 2011-12 - p.6 - 24.11.2011 - ULTIMA PUNTATA/Sottofondi/53-Carry on Wayward Son.mp3'
p263
F1322157172.886903
sS'/media/archivio/trasmissioni/ScrapJazz/spool/gianluigi trovesi with rava/04 Traccia 4.wma'
p264
F1323211296.1898351
sS'/media/archivio/trasmissioni/powerchords/film/fightclub.mp3'
p265
F1323896010.0953021
sS'/media/archivio/trasmissioni/caribbean vintage/Puntata Colonne sonore/07 - Woolton Harrison - Travelling Man .mp3'
p266
F1322250478.2957499
sS'/media/archivio/trasmissioni/OrcoTrio/Puntata2x8/Jingles/Rammstein - Sechsucht.mp3'
p267
F1322778351.266192
sS'/media/archivio/trasmissioni/radiociclabile/SECONDA SERIA/6 Sospiri/Skillet - Whispers in the dark Official Music Video HD.mp3'
p268
F1321904451.2674601
sS'/media/archivio/trasmissioni/SoFia/13a WarGame/canzoni/Full metal jacket - hello vietnam (finale).mp3'
p269
F1321829831.682765
sS'/media/archivio/trasmissioni/radiociclabile/SECONDA SERIA/6 Sospiri/Opus Avantra-Les Plaisirs Sont Doux.mp3'
p270
F1321905721.0163269
sS'/media/archivio/trasmissioni/OrcoTrio/Puntata2x9/Jingles/Black Label Society - Rust.mp3'
p271
F1323387637.7175579
sS'/media/archivio/trasmissioni/caribbean vintage/Puntata Colonne sonore/06 - Worl-A-Girl - Jamaican Bobsledding Chant.mp3'
p272
F1322246588.8703461
sS"/media/archivio/trasmissioni/scrapjazz/NewScrapJazz/sestafelice/Bitches Brew Disc 1/01 Pharaoh's Dance.mp3"
p273
F1322605374.636137
sS'/media/archivio/trasmissioni/ultima mezzora mario/28-11-2011/zucchero  - Occhi.mp3'
p274
F1322524045.877218
sS'/media/archivio/trasmissioni/ultima mezzora mario/21-11-2011/Aretha Franklin - I say a little prayer ( Official song ) HQ version _ Photos _ Photoshoots.mp3'
p275
F1321919432.5028501
sS'/media/archivio/trasmissioni/ultima mezzora leo/11/07 Under stars.mp3'
p276
F1323304823.717155
sS'/media/archivio/trasmissioni/powerchords/2011-11-30/The metropolitans - Chemtrails.mp3'
p277
F1322688053.054431
sS'/media/archivio/trasmissioni/MONO/MONO 2011-12 - p.6 - 24.11.2011 - ULTIMA PUNTATA/Varie Rock/Extreme Music - Slow death.mp3'
p278
F1322160171.842608
sS'/media/archivio/trasmissioni/powerchords/2011-11-30/PlayOnTape - Ghost Train.mp3'
p279
F1322687375.2863441
sS'/media/archivio/trasmissioni/Cinemando/13punt_23-10-2011/Handel_Water_Music_Suite_in_DG_Major_HWV349350_1.mp3'
p280
F1322072761.5895751
sS'/media/archivio/trasmissioni/MONO/MONO 2011-12 - p.6 - 24.11.2011 - ULTIMA PUNTATA/Varie Soundtrack/SHERLOCK HOLMES - Hans Zimmer - Discombobulate.mp3'
p281
F1322155742.1658821
sS'/media/archivio/trasmissioni/radiociclabile/SECONDA SERIA/radui/05 - Bulldog Skin.mp3'
p282
F1323717486.6278789
sS'/media/archivio/trasmissioni/(phi)^3/21nov/03 Il Destino Della Cicala.mp3'
p283
F1321908911.162756
sS'/media/archivio/trasmissioni/Politicazzi/Politicazzi 8/08 - Sud Eloquentia-La terra dei sogni.mp3'
p284
F1321915966.313478
sS'/media/archivio/trasmissioni/all 90 long/sound_effects/1111111111-Apollo11.mp3'
p285
F1322773415.533679
sS'/media/archivio/trasmissioni/all 90 long/Scaletta 2011 12 08/02_Song 2.mp3'
p286
F1323381709.885745
sS"/media/archivio/trasmissioni/GROOVIERA/29nov/05The Beatnuts - No Escapin' This.mp3"
p287
F1322598777.7928531
sS'/media/archivio/trasmissioni/(phi)^3/21nov/Samples_RisataBambino.mp3'
p288
F1321906357.6914189
sS'/media/archivio/trasmissioni/powerchords/Basi Definitive/zztopbase1.mp3'
p289
F1323898625.803194
sS'/media/archivio/trasmissioni/Sfasciacarrozze/2011-11-20/01 - Distances.mp3'
p290
F1321810372.5022559
sS'/media/archivio/trasmissioni/Ultima mezzora carlo/2011-12-04/07 Numb.mp3'
p291
F1323041205.5855601
sS'/media/archivio/trasmissioni/scrapjazz/01___LONely woman.mp3'
p292
F1321999947.1116209
sS'/media/archivio/trasmissioni/MONO/MONO 2011-12 - p.6 - 24.11.2011 - ULTIMA PUNTATA/Varie Soundtrack/ROCKY 4 - Survivor - Eye of the Tiger.mp3'
p293
F1322156454.059186
sS'/media/archivio/trasmissioni/OrcoTrio/Puntata2x8/Musica/Iron Maiden - Prowler.mp3'
p294
F1322777352.208853
sS'/media/archivio/trasmissioni/OrcoTrio/Puntata2x9/UM/Recoil - Jezebel.mp3'
p295
F1323386088.188189
sS'/media/archivio/trasmissioni/ultima mezzora leo/12/05 Wandering Star.mp3'
p296
F1323907541.750612
sS'/media/archivio/trasmissioni/Sfasciacarrozze/2011-11-20/04_flash of the blade.mp3'
p297
F1321807304.579767
sS'/media/archivio/trasmissioni/Pisa&Love/7 punt_20-11/6. Blur - Song2.mp3'
p298
F1321822962.4574461
sS'/media/archivio/trasmissioni/caribbean vintage/mondiska/09.2 -The Wailing Wailers - Simmer Down.mp3'
p299
F1322854963.9953389
sS'/media/archivio/trasmissioni/scrapjazz/09 - Lonely Woman(Coleman) - Naked city.mp3'
p300
F1322003361.848249
sS'/media/archivio/trasmissioni/caribbean vintage/c/Aswad Hey Jah Children.mp3'
p301
F1322852790.7499311
sS'/media/archivio/trasmissioni/(phi)^3/28nov/sediabucata.wav'
p302
F1322512525.4542129
sS'/media/archivio/trasmissioni/Rapsodia/Rapsodia2.0/puntata 11-30-2011 freddy mercury/Freddie Mercury, Montserrat Caball\xc3\xa9 - Barcelona.mp3'
p303
F1322684191.601192
sS'/media/archivio/trasmissioni/MONO/MONO 2011-12 - p.6 - 24.11.2011 - ULTIMA PUNTATA/Sottofondi/25-Free - All Right Now.mp3'
p304
F1322161066.449687
sS'/media/archivio/trasmissioni/caribbean vintage/mondiska/16 - Prince Buster - Enjoy Yourself.mp3'
p305
F1322855147.6470699
sS'/media/archivio/trasmissioni/I DisGuidi/Puntata 11 - 7 Dicembre.odt/08-Bobby Jean.mp3'
p306
F1323279818.037437
sS'/media/archivio/trasmissioni/OrcoTrio/Puntata2x9/Musica/The Velvet Underground - Venus in Furs.mp3'
p307
F1323384394.859503
sS'/media/archivio/trasmissioni/PLUG/2^STAGIONE/PLUG 6/The Knife - We Share Our Mothers Health (Trentemoller Remix).mp3'
p308
F1321911496.853781
sS'/media/archivio/trasmissioni/ultima mezzora mario/21-11-2011/Fabrizio De Andr\xc3\xa8- Smisurata preghiera.mp3'
p309
F1321919916.523237
sS"/media/archivio/trasmissioni/MONO/MONO 2011-12 - p.6 - 24.11.2011 - ULTIMA PUNTATA/Varie Rock/Blue Oyster Cult - I'm Burning For You.MP3"
p310
F1322160701.645838
sS'/media/archivio/trasmissioni/GROOVIERA/25gennaio/10 - IL CAIMANO.mp3'
p311
F1321390804.7739871
sS'/media/archivio/trasmissioni/radiociclabile/SECONDA SERIA/radui/Los Planetas - Pesadilla en el parque de atracciones.mp3'
p312
F1323719236.2987299
sS'/media/archivio/trasmissioni/OrcoTrio/Puntata2x8/Ultima Mezzorca/Jingles/Kyuss - 50 Million Year Trip.mp3'
p313
F1322782301.270556
sS'/media/archivio/trasmissioni/Gli Spacciaserie/9a puntata bis/Spoiler/misfits03e05.ogg'
p314
F1322772804.3099761
sS'/media/archivio/trasmissioni/giochi_infanti/Bob Marley - Bad Boys.mp3'
p315
F1322420223.689816
sS'/media/archivio/trasmissioni/ultima mezzora mario/altre canzoni occhi/the who - Behind Blue Eyes.mp3'
p316
F1322524590.6519041
sS"/media/archivio/trasmissioni/Sfasciacarrozze/2011-11-27/04 - It's Been a While.mp3"
p317
F1322417057.2587841
sS'/media/archivio/trasmissioni/ultima mezzora leo/11/02 Elli.ogg'
p318
F1323302854.821722
sS'/media/archivio/trasmissioni/MONO/MONO 2011-12 - p.6 - 24.11.2011 - ULTIMA PUNTATA/Sottofondi/41-Bob Seger - 2 + 2 =.mp3'
p319
F1322157672.7301641
sS'/media/archivio/trasmissioni/OrcoTrio/Puntata2x8/Musica/Focus - Hocus Pocus.mp3'
p320
F1322779157.4393909
sS'/media/archivio/trasmissioni/(phi)^3/5dic/02 No Smoke Without Fire.mp3'
p321
F1323118028.9307189
sS'/media/archivio/trasmissioni/Alabama/programma 5/Sean Paul   Hold My Hand (Video).mp3'
p322
F1321381533.3842471
sS'/media/archivio/trasmissioni/powerchords/Basi Definitive/lennybase1.mp3'
p323
F1323898973.6553531
sS'/media/archivio/trasmissioni/Sfasciacarrozze/2011-11-20/cabonigianca@tiscali.it-Dissatisfied.mp3'
p324
F1321809953.7654331
sS"/media/archivio/trasmissioni/powerchords/2011-11-30/Kiss - It's Alright.mp3"
p325
F1322688429.935477
sS'/media/archivio/trasmissioni/all 90 long/Scaletta 2011 12 08/Effetti/Per qualche dollaro in pi\xc3\xb9 - Colonna Sonora.mp3'
p326
F1323381164.8157909
sS'/media/archivio/trasmissioni/GROOVIERA/25ott/Xzibit - Alcoholic (Instrumental).mp3'
p327
F1321390882.9782021
sS'/media/archivio/trasmissioni/OrcoTrio/Puntata2x7/Musica/fine_OrcoTrio.mp3'
p328
F1322176653.0274949
sS'/media/archivio/trasmissioni/all 90 long/Scaletta 2011 12 08/Effetti/rissa - elio e le storie tese.mp3'
p329
F1323380648.707968
sS'/media/archivio/trasmissioni/Mai dire cicletta/2011-12-05/Nirvana - Come As You Are.mp3'
p330
F1323107263.9585359
sS'/media/archivio/trasmissioni/Bidoni/Puntata 2/jingles/A. Riccardo Luciani - Chanson Balladee (1977).mp3'
p331
F1322593790.751313
sS'/media/archivio/trasmissioni/Sfasciacarrozze/2011-12-11/07 - Parabola.mp3'
p332
F1323624332.481812
sS'/media/archivio/trasmissioni/caribbean vintage/c/3 -Desmond Dekker   The Israelites.mp3'
p333
F1322851448.2237329
sS'/media/archivio/trasmissioni/Mai dire cicletta/2011-11-21/Hole - Celebrity Skin.mp3'
p334
F1321896832.6965549
sS'/media/archivio/trasmissioni/GROOVIERA/martedi15/beat.mp3'
p335
F1321390821.4299309
sS'/media/archivio/trasmissioni/Bidoni/puntata 4/CCCP fedeli alla linea con AMANDA LEAR - TOMORROW (ORIGINAL VIDEO 1988).mp3'
p336
F1323199810.673039
sS'/media/archivio/trasmissioni/radiociclabile/SECONDA SERIA/7 antologia/2. Miracles musical mash-up - Exclusive by Mirlind Ashimi.mp3'
p337
F1322508287.0131891
sS'/media/archivio/trasmissioni/Gli Spacciaserie/8a puntata bis/etta james - someone to watch over me.mp3'
p338
F1322164611.2224569
sS'/media/archivio/trasmissioni/Gli Spacciaserie/9a puntata bis/League - spezzoni/07_Ilvinoaitrepeni.ogg'
p339
F1322770619.5878069
sS'/media/archivio/trasmissioni/SoFia/16a Pandoro&Panettone/08 - Silent Night.mp3'
p340
F1323639508.4606049
sS'/media/archivio/trasmissioni/MONO/MONO 2011-12 - p.6 - 24.11.2011 - ULTIMA PUNTATA/Varie Rock/Tito and Tarantula - Strange Face of Love.mp3'
p341
F1322157520.7383211
sS"/media/archivio/trasmissioni/Politicazzi/Politicazzi 8/Le Canzoni dell'Albero Azzurro - Con la pazienza.mp3"
p342
F1321917248.968503
sS'/media/archivio/trasmissioni/pendente/2011-12-03/E cantava le canzoni-Rino Gaetano.mp3'
p343
F1322927112.2940209
sS'/media/archivio/trasmissioni/GROOVIERA/22novembrewithandrew/15 Thieves In The Nightblackstar.m4a'
p344
F1321996068.4794221
sS"/media/archivio/trasmissioni/Politicazzi/PoliticazziDieci/Le Canzoni dell'Albero Azzurro - Con gli amici c'\xc3\xa8 pi\xc3\xb9 gusto.mp3"
p345
F1323126795.7489121
sS'/media/archivio/trasmissioni/Cinemando/15punt_07-12-2011/15 - Tenacious D - The Metal.mp3'
p346
F1323284355.3887839
sS'/media/archivio/trasmissioni/OrcoTrio/Puntata2x7/Ultima Mezzorca/Jingles/The Smiths - How Soon Is Now.mp3'
p347
F1322177253.782243
sS'/media/archivio/trasmissioni/ultima mezzora leo/12/03 Telephone and Rubber Band.ogg'
p348
F1323906513.3706281
sS'/media/archivio/trasmissioni/ultima mezzora leo/12/11 Armstrong.ogg'
p349
F1323906365.866358
sS'/media/archivio/trasmissioni/Ultima mezzora carlo/2011-12-04/Tricky & Portishead - Hell Is Around The Corner.mp3'
p350
F1323040644.1875429
sS'/media/archivio/trasmissioni/OrcoTrio/Puntata2x7/Ultima Mezzorca/Jingles/Queens of the Stone Age - Millionaire.mp3'
p351
F1322177959.4279439
sS"/media/archivio/trasmissioni/OrcoTrio/Puntata2x8/Jingles/Richie Kotzen - Mother head's family reunion.mp3"
p352
F1322779296.189657
sS'/media/archivio/trasmissioni/scrapjazz/01 skies of america.MP3'
p353
F1322001381.827379
sS'/media/archivio/trasmissioni/Sfasciacarrozze/2011-12-4/02 - porcupine tree - trains.mp3'
p354
F1323020826.532831
sS'/media/archivio/trasmissioni/caribbean vintage/puntata 11-11-11/Robyn  39Dancehall Queen 39 (1).mp3'
p355
F1321645352.2559619
sS'/media/archivio/trasmissioni/Politicazzi/Politicazzi NONNA/03 - Giuni Russo - Alghero.mp3'
p356
F1322519617.9153459
sS'/media/archivio/trasmissioni/Gli Spacciaserie/9a puntata bis/Spoiler/Greys08e09.ogg'
p357
F1322772425.482332
sS'/media/archivio/trasmissioni/ultima mezzora mario/28-11-2011/Bugo - I Miei Occhi Vedono.mp3'
p358
F1322523297.634496
sS'/media/archivio/trasmissioni/all 90 long/Scaletta 2011 12 01/Sottofondi/sigla ita.mp3'
p359
F1323378268.0502579
sS'/media/archivio/trasmissioni/(phi)^3/5dic/Never Gonna Give You Up.mp3'
p360
F1323116420.4808991
sS'/media/archivio/trasmissioni/scrapjazz/NewScrapJazz/sestafelice/05 Teo.mp3'
p361
F1322605124.3708451
sS'/media/archivio/trasmissioni/Politicazzi/PoliticazziDieci/BOBBY SOLO-SE PIANGI SE RIDI-festival della canzone italiana _Sanremo 1965 rec.original vinyl.wmv.mp3'
p362
F1323124305.913219
sS'/media/archivio/trasmissioni/SoFia/15a Estintori/Franco Battiato - Fumo di una sigaretta.mp3'
p363
F1323036160.9295299
sS'/media/archivio/trasmissioni/Made in Italy/speciale cantautori/Pino Daniele - Je so pazz 39.mp3'
p364
F1322588857.189285
sS'/media/archivio/trasmissioni/LabNova/attualit\xc3\xa0 n.3/Radiohead - No Surprises.mp3'
p365
F1321815069.4430771
sS'/media/archivio/trasmissioni/caribbean vintage/puntata 11-11-11/[ o.m.g. riddim ] 08. busy signal - right now - dz.mp3'
p366
F1321645044.6718249
sS'/media/archivio/trasmissioni/Gli Spacciaserie/9a puntata bis/League - spezzoni/05_TacoEskimoBro.ogg'
p367
F1322769810.3791201
sS'/media/archivio/trasmissioni/Pisa&Love/7 punt_20-11/3. AC-DC - Hells Bells.mp3'
p368
F1321821074.4470789
sS"/media/archivio/trasmissioni/Politicazzi/PoliticazziDieci/L'Allenatore nel Pallone _Can\xc3\xa0 operato in Brasile_.mp3"
p369
F1323126516.7397611
sS'/media/archivio/trasmissioni/I DisGuidi/Puntata 11 - 7 Dicembre.odt/PORTA UN BACIONE A FIRENZE.mp3'
p370
F1323278683.171098
sS"/media/archivio/trasmissioni/ultima mezzora mario/28-11-2011/Andy Williams -  Can't Take My Eyes Off You.mp3"
p371
F1322522078.9311271
sS'/media/archivio/trasmissioni/Pisa&Love/10 punt_11-12/2 - scrubs 1.mp3'
p372
F1323634690.9319019
sS'/media/archivio/trasmissioni/Alabama/programma4/Caparezza   Legalize The Premier (feat Alborosie).mp3'
p373
F1321381772.5013189
sS'/media/archivio/trasmissioni/pendente/basi pendente/07 A punente.mp3'
p374
F1322932073.4325061
sS'/media/archivio/trasmissioni/Alabama/programma 3/6.wav'
p375
F1322591944.262327
sS'/media/archivio/trasmissioni/ultima mezzora mario/ultima/07 - Pink Floyd - Goodbye Blue Sky.mp3'
p376
F1323127472.0400281
sS'/media/archivio/trasmissioni/GROOVIERA/25ott/03 Neffa & Chico MD - Guerra e Pace.mp3'
p377
F1322602049.2658429
sS'/media/archivio/trasmissioni/Pisa&Love/7 punt_20-11/Sigla finale - Fabrizio De Andr\xc3\xa8 - A dumenega.mp3'
p378
F1321824734.2233751
sS"/media/archivio/trasmissioni/Mai dire cicletta/2011-12-12/THE FAITH KEEPERS - Don't Worry 'Bout Later.mp3"
p379
F1323716414.874537
sS'/media/archivio/trasmissioni/all 90 long/Scaletta 2011 11 24/01_Moi ... Lolita.mp3'
p380
F1322170093.68483
sS'/media/archivio/trasmissioni/all 90 long/Scaletta 2011 12 01/07 - Out Of Space.mp3'
p381
F1322775303.172039
sS'/media/archivio/trasmissioni/Gli Spacciaserie/9a puntata bis/League - spezzoni/06_Ruxineilpugnodalfootballplayer.ogg'
p382
F1322770143.9555559
sS'/media/archivio/trasmissioni/LabNova/attualit\xc3\xa0 n.3/Radiohead The Bends - 10 Black Star.mp3'
p383
F1321815516.9708099
sS'/media/archivio/trasmissioni/Suppostine/20111118/Imagine.mp3'
p384
F1321638590.178807
sS'/media/archivio/trasmissioni/pendente/basi pendente/06 Kav\xc3\xa0ldoudouk.mp3'
p385
F1322927757.0142801
sS'/media/archivio/trasmissioni/Ultima mezzora carlo/2011-11-30/Scala & Kolacny Brothers - Champagne supernova (Oasis cover) (184 k bit).mp3'
p386
F1322697604.837373
sS'/media/archivio/trasmissioni/(phi)^3/28nov/01 Overture.mp3'
p387
F1322512852.395937
sS'/media/archivio/trasmissioni/(phi)^3/5dic/Aria Sulla Quarta Corda.mp3'
p388
F1323119155.867703
sS'/media/archivio/trasmissioni/ultima mezzora leo/11/09 Something About Us.ogg'
p389
F1323305342.1815591
sS'/media/archivio/trasmissioni/Gli Spacciaserie/8a puntata bis/annie - Tomorrow.mp3'
p390
F1322168567.3015699
sS'/media/archivio/trasmissioni/caribbean vintage/puntata 11-11-11/Sizzla - Woman I Need You.mp3'
p391
F1321641969.071841
sS'/media/archivio/trasmissioni/SoFia/16a Pandoro&Panettone/Hillary Duff - Last Christmas.mp3'
p392
F1323638912.419071
sS'/media/archivio/trasmissioni/PLUG/02 - Midnight City.mp3'
p393
F1321909931.3900819
sS'/media/archivio/trasmissioni/Cinemando/14punt_30-11-2011/10 Farewell and The Tower.mp3'
p394
F1322678921.429472
sS'/media/archivio/trasmissioni/(phi)^3/28nov/04 Gone Daddy Gone.mp3'
p395
F1322511005.687314
sS'/media/archivio/trasmissioni/Pisa&Love/10 punt_11-12/1 - Rino Gaetano - E Berta Filava.mp3'
p396
F1323634192.0031409
sS"/media/archivio/trasmissioni/Cinemando/14punt_30-11-2011/15 Scene D'Amour.mp3"
p397
F1322677842.6643169
sS'/media/archivio/trasmissioni/Gli Spacciaserie/9a puntata bis/League - spezzoni/08_AndreEShiva.ogg'
p398
F1322770790.0066929
sS'/media/archivio/trasmissioni/I DisGuidi/Puntata 11 - 7 Dicembre.odt/Green Day - 03 - Holiday.mp3'
p399
F1323280909.8176479
sS"/media/archivio/trasmissioni/GROOVIERA/22novembrewithandrew/09aI Changed My Mind (stereo Mc's Ra.m4a"
p400
F1321994539.1009331
sS'/media/archivio/trasmissioni/Rapsodia/Rapsodia2.0/puntata 11-23-2011/Sk\xc3\xb6ll - Notti di Assenzio.mp3'
p401
F1322076478.4573231
sS'/media/archivio/trasmissioni/(phi)^3/5dic/The Imperial March (Darth Vade.mp3'
p402
F1323119006.5072639
sS'/media/archivio/trasmissioni/caribbean vintage/puntata 11-11-11/12 - Legalize the Premier.mp3'
p403
F1321641357.7340269
sS'/media/archivio/trasmissioni/OrcoTrio/Puntata2x8/Ultima Mezzorca/Jingles/She Wants Revenge - Sister.mp3'
p404
F1322781392.1507421
sS'/media/archivio/trasmissioni/powerchords/2011-12-07/SOAD - Soldier Side.mp3'
p405
F1323294922.641536
sS'/media/archivio/trasmissioni/radiociclabile/12a/01b. sottofondo (11) - Copia.mp3'
p406
F1321905408.133379
sS'/media/archivio/trasmissioni/caribbean vintage/Puntata Colonne sonore/Bob Marley  The Wailers   Jah Live (HQ).mp3'
p407
F1322247659.823472
sS'/media/archivio/trasmissioni/ultima mezzora leo/10/06 Fences.mp3'
p408
F1322436664.9720089
sS'/media/archivio/trasmissioni/all 90 long/Scaletta 2011 12 01/Sottofondi/X Files Theme Tune.mp3'
p409
F1322776693.0395839
sS'/media/archivio/trasmissioni/(phi)^3/5dic/11 Volo sul Mondo.mp3'
p410
F1323118954.9881141
sS'/media/archivio/trasmissioni/Sfasciacarrozze/2011-11-27/a perfect circle - 06 - 3 libras.mp3'
p411
F1322414968.880722
sS'/media/archivio/trasmissioni/Alabama/programma 3/9.wav'
p412
F1322592844.7062421
sS'/media/archivio/trasmissioni/PLUG/2^STAGIONE/PLUG 8/08 - 1 Giant Leap - Passion (Feat. Michael Franti).mp3'
p413
F1323120123.0421679
sS'/media/archivio/trasmissioni/SoFia/14a Scarpa/Elio e le storie tese la follia della donna 2.mp3'
p414
F1322430971.8648341
sS'/media/archivio/trasmissioni/radiociclabile/SECONDA SERIA/radui/Duro De Domar - Billy Bond Con La Pesada - Gracias Al Cielo.mp3'
p415
F1323720238.636739
sS'/media/archivio/trasmissioni/Cinemando/15punt_07-12-2011/13 - Tenacious D - Beelzeboss.mp3'
p416
F1323283566.8746741
sS'/media/archivio/trasmissioni/scrapjazz/NewScrapJazz/fondo/01 - Not Their Fight.mp3'
p417
F1322000787.3941269
sS'/media/archivio/trasmissioni/powerchords/2011-12-14_ultimapuntata/Bad Religion - American Jesus.mp3'
p418
F1323897012.8111961
sS'/media/archivio/trasmissioni/SoFia/12a Battitappeti e Lucidalabbra/01. Sigla SuperQuark - J. S. Bach - Aria sulla quarta corda.mp3'
p419
F1321825043.2865231
sS'/media/archivio/trasmissioni/LabNova/attualit\xc3\xa0 n.3/Radiohead - High  Dry.mp3'
p420
F1321812630.5617671
sS'/media/archivio/trasmissioni/OrcoTrio/Puntata2x7/Jingles/Gloria Gaynor-Substitute.mp3'
p421
F1322173808.13674
sS'/media/archivio/trasmissioni/all 90 long/Scaletta 2011 11 24/04 If I Ever Feel Better 1.mp3'
p422
F1322171678.977967
sS'/media/archivio/trasmissioni/Sfasciacarrozze/2011-11-27/3_sunshine_live.mp3'
p423
F1322414494.1807799
sS'/media/archivio/trasmissioni/all 90 long/Scaletta 2011 11 24/06 - Alliance Ethnik - No Limites.mp3'
p424
F1322169860.851218
sS'/media/archivio/trasmissioni/(phi)^3/14nov/06 Monolocale 7.30 a.m..MP3'
p425
F1321908268.4454861
sS'/media/archivio/trasmissioni/radiociclabile/SECONDA SERIA/radui/Shocking Blue - 14 - Send Me A Postcard.mp3'
p426
F1323719799.9588239
sS'/media/archivio/trasmissioni/Made in Italy/PUNK 2 radiocicletta/34 Giuda! - Ubriaco Di Illusioni.mp3'
p427
F1321376930.5579529
sS"/media/archivio/trasmissioni/MONO/MONO 2011-12 - p.6 - 24.11.2011 - ULTIMA PUNTATA/Varie Rock/Blind Faith - Can't Find My Way Home.mp3"
p428
F1322159633.733566
sS'/media/archivio/trasmissioni/Pisa&Love/7 punt_20-11/8. A Perfect Circle - Passive.mp3'
p429
F1321824071.5614719
sS'/media/archivio/trasmissioni/Gli Spacciaserie/9a puntata bis/League - musica/Saturn Missiles - Some Day.mp3'
p430
F1322769545.3935621
sS'/media/archivio/trasmissioni/powerchords/2011-12-07/The Beatles - Ticket to ride.mp3'
p431
F1323293057.474149
sS'/media/archivio/trasmissioni/scrapjazz/NewScrapJazz/fondo/03 - Benedict Returns.mp3'
p432
F1322002776.069524
sS'/media/archivio/trasmissioni/Made in Italy/speciale cantautori/Lucio Dalla- Come  profondo il mare 1977.mp3'
p433
F1322589610.340929
sS'/media/archivio/trasmissioni/Made in Italy/progressive italia/PERIGEO (Abbiamo tutti un blues da piangere).mp3'
p434
F1323192841.3975501
sS'/media/archivio/trasmissioni/(phi)^3/28nov/14 Red Light.mp3'
p435
F1322512715.979646
sS'/media/archivio/trasmissioni/Made in Italy/progressive italia/La Pentola Di Papin - Cieli Aperti.mp3'
p436
F1323193630.3506091
sS'/media/archivio/trasmissioni/MONO/MONO 2011-12 - p.6 - 24.11.2011 - ULTIMA PUNTATA/Varie Rock/UFO - Rock Bottom.mp3'
p437
F1322158679.193028
sS'/media/archivio/trasmissioni/Mai dire cicletta/2011-11-21/The Cranberries - Zombie.mp3'
p438
F1321898475.820163
sS"/media/archivio/trasmissioni/OrcoTrio/Puntata2x8/Jingles/Gov't Mule - Streamline Woman.mp3"
p439
F1322777910.8296881
sS'/media/archivio/trasmissioni/powerchords/2011-12-07/DavideVanDeSfroos - Il Camionista Ghost Rider.mp3'
p440
F1323293639.7313409
sS'/media/archivio/trasmissioni/OrcoTrio/Puntata2x8/Musica/Evile - Thrasher.mp3'
p441
F1322780341.2514789
sS'/media/archivio/trasmissioni/caribbean vintage/Puntata Colonne sonore/(cherry oh baby riddim) - tony rebel - sweet jamaica.mp3'
p442
F1322246179.348351
sS'/media/archivio/trasmissioni/Politicazzi/Politicazzi 8/Ligabue - Ora e allora.mp3'
p443
F1321914243.725158
sS"/media/archivio/trasmissioni/Mai dire cicletta/base/Don't Worry 'Bout Later base.mp3"
p444
F1323716349.6977589
sS'/media/archivio/trasmissioni/(phi)^3/21nov/Would you go to bed with me.mp3'
p445
F1321907309.517235
sS'/media/archivio/trasmissioni/Made in Italy/Made in Italy speciale New Wave/Plasticost - Canzone Dada 1983.mp3'
p446
F1321983032.809247
sS'/media/archivio/trasmissioni/ultima mezzora leo/10/07 Nine.ogg'
p447
F1322438568.3194399
sS'/media/archivio/trasmissioni/Made in Italy/speciale cantautori/Una settimana un giorno - E Bennato.mp3'
p448
F1322589191.656316
sS'/media/archivio/trasmissioni/Pisa&Love/7 punt_20-11/5. Ok Go - Get Over It.mp3'
p449
F1321822455.2967169
sS'/media/archivio/trasmissioni/GROOVIERA/29nov/[RAP ITALIANO] Uomini Di Mare - La Monomania (Strumentale).mp3'
p450
F1322602170.4609079
sS'/media/archivio/trasmissioni/GROOVIERA/6dic/14Videomind - Peter Pan-[www.flv2mp3.com].mp3'
p451
F1323206039.8599241
sS'/media/archivio/trasmissioni/(phi)^3/28nov/Fascisti Marte Ossigeno.mp3'
p452
F1322512017.0098889
sS'/media/archivio/trasmissioni/scrapjazz/NewScrapJazz/terza puntata/ Dave Brubeck - Blue Rond\xc3\xb2 a La Turk (live)/tritonis.m4a'
p453
F1321396587.717253
sS'/media/archivio/trasmissioni/GROOVIERA/29nov/07intervistakaos.mp3'
p454
F1322599671.114424
sS'/media/archivio/trasmissioni/Alabama/programma 3/06.mp3'
p455
F1322591882.4702189
sS'/media/archivio/trasmissioni/Ultima mezzora carlo/2011-11-20/The Sound of Silence (Original Version from 1964).mp3'
p456
F1321831633.770364
sS'/media/archivio/trasmissioni/Sfasciacarrozze/2011-12-4/Angra - 03 - Silence And Distance.mp3'
p457
F1323019728.9264779
sS'/media/archivio/trasmissioni/(phi)^3/21nov/Samples_RobinHood.mp3'
p458
F1321907797.8573749
sS'/media/archivio/trasmissioni/Rapsodia/Rapsodia2.0/puntata queen 12-14-2011/Queen - Let Me Live.mp3'
p459
F1323892907.418329
sS'/media/archivio/trasmissioni/Sfasciacarrozze/2011-12-4/Benedais - Demo - tutto andr\xc3\xa0 bene.mp3'
p460
F1323018892.4865041
sS'/media/archivio/trasmissioni/Pisa&Love/10 punt_11-12/5 - Alanis Morissette - You Oughta Know.mp3'
p461
F1323636266.5339191
sS'/media/archivio/trasmissioni/Pisa&Love/8 punt_27-11/1. REM - The Great Beyond.mp3'
p462
F1322424526.4339671
sS'/media/archivio/trasmissioni/PLUG/2^STAGIONE/PLUG 7/JINGLE_SIGLA.mp3'
p463
F1322514236.936805
sS"/media/archivio/trasmissioni/OrcoTrio/Puntata2x7/Musica/The Desert Sessions - Screamin' Eagle.mp3"
p464
F1322175076.1266911
sS"/media/archivio/trasmissioni/(phi)^3/21nov/04 When Your Mind's Made Up.mp3"
p465
F1321908486.84443
sS'/media/archivio/trasmissioni/ultima mezzora mario/28-11-2011/Sergio Endrigo - Lontano dagli occhi.mp3'
p466
F1322524306.8601141
sS'/media/archivio/trasmissioni/all 90 long/Scaletta 2011 12 08/01 - You Get What You Give.mp3'
p467
F1323380098.7169161
sS'/media/archivio/trasmissioni/Made in Italy/progressive italia/Le Orme - allinfuori del tempo.mp3'
p468
F1323193247.354959
sS'/media/archivio/trasmissioni/(phi)^3/28nov/Fire Truck Siren-SoundBible.com-6427.wav'
p469
F1322511273.4045179
sS'/media/archivio/trasmissioni/ultima mezzora leo/12/01 \xc3\x81guas de Mar\xc3\xa7o.ogg'
p470
F1323904162.8741741
sS'/media/archivio/trasmissioni/all 90 long/Scaletta 2011 12 08/Effetti/Il Buono, Il Brutto, Il Cattivo - Theme ( Ennio Morricone ).mp3'
p471
F1323380589.2377501
sS'/media/archivio/trasmissioni/Politicazzi/Politicazzi NONNA/02 - david bryne - This Must Be the Place (Na\xc3\xafve Melody) [Live].mp3'
p472
F1322521881.8938351
sS"/media/archivio/trasmissioni/Mai dire cicletta/2011-11-21/THE FAITH KEEPERS - Don't Worry 'Bout Later.mp3"
p473
F1321898636.688298
sS'/media/archivio/trasmissioni/GROOVIERA/22novembrewithandrew/10aWitness (One Hope).mp3'
p474
F1321994996.099704
sS'/media/archivio/trasmissioni/(phi)^3/28nov/04 Mouthpiece.mp3'
p475
F1322512298.174962
sS'/media/archivio/trasmissioni/scrapjazz/quarta/05 Lazy Bird.m4a'
p476
F1321395738.7720399
sS'/media/archivio/trasmissioni/Made in Italy/PUNK 2 radiocicletta/Kaos Rock - Basta Basta.mp3'
p477
F1321377928.449667
sS'/media/archivio/trasmissioni/Sfasciacarrozze/2011-12-4/Harry Nilsson - 07 - Coconut.mp3'
p478
F1323020466.198498
sS'/media/archivio/trasmissioni/Pisa&Love/Musiche/Base - Eric Johnson - Cliffs of Dover (Studio Version).mp3'
p479
F1323636587.117394
sS'/media/archivio/trasmissioni/Gli Spacciaserie/8a puntata bis/Bob Marley - Three Little Birds.mp3'
p480
F1322162850.728756
sS'/media/archivio/trasmissioni/(phi)^3/21nov/05 Mad World.mp3'
p481
F1321908982.8649991
sS"/media/archivio/trasmissioni/Rapsodia/Rapsodia2.0/puntata 11-30-2011 freddy mercury/queen/9. freddie mercury [mercoled\xc3\xac 30 novembre '11]/who wants to live forever - queen.mp3"
p482
F1322683016.0927551
sS'/media/archivio/trasmissioni/Made in Italy/speciale cantautori/Rino Gaetano Tu forse non essenzialmente tu 1974.mp3'
p483
F1322588329.1858871
sS'/media/archivio/trasmissioni/OrcoTrio/Puntata2x8/Ultima Mezzorca/Long distance calling - Time bends.mp3'
p484
F1322781849.6586831
sS'/media/archivio/trasmissioni/Rapsodia/Rapsodia2.0/puntata 11-30-2011 freddy mercury/Queen - I Want It All.mp3'
p485
F1323894258.7531779
sS'/media/archivio/trasmissioni/MONO/MONO 2011-12 - p.6 - 24.11.2011 - ULTIMA PUNTATA/Varie Soundtrack/RESERVOIR DOGS - George Baker - Little Green Bag.mp3'
p486
F1322155508.5001731
sS'/media/archivio/trasmissioni/Made in Italy/Made in Italy speciale New Wave/Diaframma - ultimo boulevard studio.mp3'
p487
F1321984802.135319
sS'/media/archivio/trasmissioni/ultima mezzora leo/11/10 Change (In the House of Flies).ogg'
p488
F1323301930.618304
sS'/media/archivio/trasmissioni/Alabama/programma 6/Kansas   Dust In The Wind.mp3'
p489
F1322593280.3133211
sS'/media/archivio/trasmissioni/(phi)^3/28nov/Rockafeller Skank.mp3'
p490
F1322512378.3988349
sS'/media/archivio/trasmissioni/Gli Spacciaserie/9a puntata bis/League - spezzoni/09_ShivaeShiva.ogg'
p491
F1322771073.8919351
sS'/media/archivio/trasmissioni/Sfasciacarrozze/2011-12-11/01 - immortal bliss.mp3'
p492
F1323623154.0224531
sS'/media/archivio/trasmissioni/radiociclabile/SECONDA SERIA/radui/06 - The Smashing Pumpkins - Bullet with Butterfly Wings.mp3'
p493
F1323718776.7858629
sS'/media/archivio/trasmissioni/Mai dire cicletta/2011-12-12/evanescence - Bring Me To Life.wma'
p494
F1323713974.6160159
sS'/media/archivio/trasmissioni/Bidoni/Puntata 2/jingles/Nyan Cat - Smooth Jazz Cover.mp3'
p495
F1322595415.845293
sS'/media/archivio/trasmissioni/GROOVIERA/martedi15/05Retrohandz & Santiago - Di Corsa (OFFICIAL VIDEO).mp3'
p496
F1321388853.706605
sS"/media/archivio/trasmissioni/pendente/2011-11-19/Pe' la via.mp3"
p497
F1321722706.1611471
sS'/media/archivio/trasmissioni/Sfasciacarrozze/2011-11-27/2_ultraviolet.mp3'
p498
F1322413444.1199861
sS'/media/archivio/trasmissioni/OrcoTrio/Puntata2x8/Ultima Mezzorca/Sans Plaque - Love Noir.mp3'
p499
F1322782588.600358
sS'/media/archivio/trasmissioni/GROOVIERA/29nov/03RAMPAGE - DOO WOP - HELTAH SKELTAH - FEEL THE ViBE.mp3'
p500
F1322598213.142797
sS'/media/archivio/trasmissioni/Rapsodia/Rapsodia2.0/puntata 11-23-2011/Bandabard\xc3\xb2 Venti bottiglie di vino.mp3'
p501
F1322079557.9636731
sS'/media/archivio/trasmissioni/Politicazzi/Politicazzi 8/Franco Califano - La vacanza di fine settimana.mp3'
p502
F1321916709.8628931
sS'/media/archivio/trasmissioni/OrcoTrio/Puntata2x8/Jingles/The Jimi Hendrix Experience - Up From The Skies.mp3'
p503
F1322780642.4792111
sS'/media/archivio/trasmissioni/OrcoTrio/Puntata2x7/Jingles/Queen - Bicycle Race.mp3'
p504
F1322175824.168926
sS'/media/archivio/trasmissioni/ultima mezzora mario/28-11-2011/Battiato - Te lo leggo negli occhi.mp3'
p505
F1322522316.7129459
sS'/media/archivio/trasmissioni/OrcoTrio/Puntata2x8/Musica/Bluvertigo - La Crisi.mp3'
p506
F1322777694.9836709
sS'/media/archivio/trasmissioni/ultima mezzora mario/28-11-2011/Fiorella Mannoia - Occhi neri.mp3'
p507
F1322523540.0190489
sS'/media/archivio/trasmissioni/OrcoTrio/Puntata2x8/Jingles/Red Hot Chili Peppers-Funky Crime.mp3'
p508
F1322778917.7966111
sS'/media/archivio/trasmissioni/radiociclabile/SECONDA SERIA/6 Sospiri/It Must Have Been Love by Roxette [Lyrics].mp3'
p509
F1321904221.514981
sS'/media/archivio/trasmissioni/ultima mezzora leo/12/10 Across the Universe.ogg'
p510
F1323906109.1441669
sS"/media/archivio/trasmissioni/Rapsodia/Rapsodia2.0/puntata 11-23-2011/Nuova cartella/Roberto Vecchioni-L'uomo che si gioca il cielo a dadi.mp3"
p511
F1322076084.679646
sS'/media/archivio/trasmissioni/ScrapJazz/spool/02. Jazz Crimes.mp3'
p512
F1323211729.090358
sS'/media/archivio/trasmissioni/caribbean vintage/c/Yabby You   Deliver Me From My Enemies   Babylon OST LP  Chrysalis.mp3'
p513
F1322853957.551362
sS'/media/archivio/trasmissioni/powerchords/2011-11-30/Saliva - Superstar.mp3'
p514
F1322690459.2115929
sS"/media/archivio/trasmissioni/I DisGuidi/Puntata 12 - 14 Dicembre/Bruce Springsteen - Racing in the Streets - The Promise - Song from 'The Promise' 07.12.10.mp3"
p515
F1323885043.193855
sS"/media/archivio/trasmissioni/Sfasciacarrozze/2011-12-11/10 - living colour - what's your favorite color (theme song).mp3"
p516
F1323621630.9895711
sS'/media/archivio/trasmissioni/Made in Italy/Made in Italy speciale New Wave/Moda - Nubi d oriente 1984.mp3'
p517
F1321984001.575763
sS'/media/archivio/trasmissioni/Gli Spacciaserie/8a puntata bis/Big and Rich - Save a horse ride a cowboy.mp3'
p518
F1322165897.5103581
sS'/media/archivio/trasmissioni/Mai dire cicletta/base/Travis walk base.mp3'
p519
F1322502705.682893
sS'/media/archivio/trasmissioni/powerchords/Basi Definitive/ozzybase1.mp3'
p520
F1323897349.333595
sS'/media/archivio/trasmissioni/GROOVIERA/22novembrewithandrew/beat The Duke of Burlington.mp3'
p521
F1321995762.933018
sS'/media/archivio/trasmissioni/ultima mezzora mario/altre canzoni occhi/Rolling Stones - Faraway Eyes.mp3'
p522
F1323734886.0489421
sS'/media/archivio/trasmissioni/Bidoni/puntata 4/Mauro Repetto - Baciami Qui (introvabile!!!!).mp3'
p523
F1323200480.249433
sS'/media/archivio/trasmissioni/powerchords/2011-11-30/Metallica - Enter_Sandman.mp3'
p524
F1322689983.717226
sS'/media/archivio/trasmissioni/Alabama/programma 6/Even flow Pearl jam lyrics.mp3'
p525
F1322591298.2596719
sS'/media/archivio/trasmissioni/caribbean vintage/Puntata Colonne sonore/Roots Time   Mr Rebel (Aluta Continua).mp3'
p526
F1322250900.9861181
sS'/media/archivio/trasmissioni/GROOVIERA/22novembrewithandrew/01grandmaster flash - the message.mp3'
p527
F1321991824.478174
sS'/media/archivio/trasmissioni/OrcoTrio/Puntata2x9/Musica/fine_OrcoTrio.mp3'
p528
F1323385492.609355
sS'/media/archivio/trasmissioni/SoFia/15a Estintori/Deep Purple - Smoke On The Water.mp3'
p529
F1323033385.1624689
sS'/media/archivio/trasmissioni/ultima mezzora leo/11/10 Silver Star of Bologna.ogg'
p530
F1323303497.3629141
sS'/media/archivio/trasmissioni/ScrapJazz/sottofondo/SiglaInizio.wav'
p531
F1323208982.739074
sS'/media/archivio/trasmissioni/I DisGuidi/Puntata 12 - 14 Dicembre/Placebo - Special Needs.mp3'
p532
F1323883361.7812979
sS'/media/archivio/trasmissioni/OrcoTrio/Puntata2x8/Musica/Megadeth - Take No Prisoners.mp3'
p533
F1322778551.889348
sS'/media/archivio/trasmissioni/Made in Italy/Made in Italy speciale New Wave/Faust O - Godi.mp3'
p534
F1321982238.0806069
sS'/media/archivio/trasmissioni/ultima mezzora mario/28-11-2011/Bonobo-Eyesdown Featuring Andreya Triana.mp3'
p535
F1322522998.430723
sS'/media/archivio/trasmissioni/all 90 long/Scaletta 2011 11 24/03 le vent nous portera.mp3'
p536
F1322172300.8614371
sS'/media/archivio/trasmissioni/all 90 long/Scaletta 2011 12 01/Beastie Boys - Intergalactic.mp3'
p537
F1322775682.3918519
sS'/media/archivio/trasmissioni/OrcoTrio/Puntata2x7/Musica/Gloria Gaynor - I Will Survive.mp3'
p538
F1322174088.4056799
sS'/media/archivio/trasmissioni/Pisa&Love/9 punt_4-12/5. Kinsey lezione.mp3'
p539
F1323031057.35058
sS'/media/archivio/trasmissioni/(phi)^3/28nov/Brim Ful Of Asha (Fatboy Slim Remix).mp3'
p540
F1322513617.254173
sS'/media/archivio/trasmissioni/Mai dire cicletta/2011-11-28/sigle/Ramones - Happy Birthday (Simpsons).mp3'
p541
F1323111578.2766621
sS'/media/archivio/trasmissioni/Ultima mezzora carlo/2011-11-30/03 In un mondo semplice.mp3'
p542
F1322695094.7796841
sS'/media/archivio/trasmissioni/PLUG/2^STAGIONE/PLUG 8/jingle__THIS IS PLUG.mp3'
p543
F1323122269.1056321
sS'/media/archivio/trasmissioni/ultima mezzora leo/10/06 Changing of the Seasons.mp3'
p544
F1322436950.733217
sS"/media/archivio/trasmissioni/ultima mezzora leo/10/08 While I'm Still Young.mp3"
p545
F1322436085.129143
sS'/media/archivio/trasmissioni/PLUG/2^STAGIONE/PLUG 6/Stevie Wonder - Superstition (Fare Soldi Zupparstition rmx).mp3'
p546
F1321910213.9154711
sS'/media/archivio/trasmissioni/all 90 long/Scaletta 2011 12 01/Sottofondi/E.T. Theme Song.mp3'
p547
F1322774182.8638811
sS'/media/archivio/trasmissioni/Ultima mezzora carlo/2011-11-20/Tinturia - NICUZZA (1).mp3'
p548
F1321830486.3242581
sS'/media/archivio/trasmissioni/ultima mezzora mario/21-11-2011/Ben Harper - Power of the Gospel.mp3'
p549
F1321918770.8128591
sS'/media/archivio/trasmissioni/OrcoTrio/Puntata2x7/Musica/Nirvana-Aneurysm.mp3'
p550
F1322173707.186708
sS'/media/archivio/trasmissioni/Bidoni/Puntata 1/jingle/08 Start A War.mp3'
p551
F1323200257.5806141
sS'/media/archivio/trasmissioni/Ultima mezzora carlo/2011-12-11/05 Procol Harum - A Whiter Shade of Pale.mp3'
p552
F1323645544.0034139
sS'/media/archivio/trasmissioni/OrcoTrio/Puntata2x7/Jingles/Thin lizzy - Whiskey in the Jar.mp3'
p553
F1322176500.5495491
sS'/media/archivio/trasmissioni/radiociclabile/Sesta puntata/01b. sottofondo (11) - Copia.mp3'
p554
F1323720114.18943
sS'/media/archivio/trasmissioni/scrapjazz/NewScrapJazz/terza puntata/Flirt a Rio Piero Umiliani Easy Tempo, Vol. 4.mp3'
p555
F1322003168.373379
sS'/media/archivio/trasmissioni/powerchords/Basi Definitive/redbase2.mp3'
p556
F1322689014.9664249
sS'/media/archivio/trasmissioni/(phi)^3/28nov/Terra 2.0.mp3'
p557
F1322513054.2573559
sS'/media/archivio/trasmissioni/Made in Italy/Made in Italy speciale New Wave/01-01 Aus Decline - Fluxion.mp3'
p558
F1321981876.058162
sS'/media/archivio/trasmissioni/SoFia/16a Pandoro&Panettone/Bach, Air on the G string (Air on a G string, string orchestra).mp3'
p559
F1323638228.615006
sS'/media/archivio/trasmissioni/OrcoTrio/Puntata2x7/Musica/Queen-Fat Bottomed Girls.mp3'
p560
F1322176083.8541789
sS'/media/archivio/trasmissioni/radiociclabile/SECONDA SERIA/radui/Dread Zeppelin - Stairway To Heaven (Led Zepellin Cover).mp3'
p561
F1323718175.868361
sS'/media/archivio/trasmissioni/powerchords/2011-12-14_ultimapuntata/Puya - Oasis.mp3'
p562
F1323895949.766151
sS'/media/archivio/trasmissioni/Sfasciacarrozze/2011-11-20/Enchant - 06 - Juggling Knives.mp3'
p563
F1321811679.0177951
sS'/media/archivio/trasmissioni/SoFia/16a Pandoro&Panettone/08-Modena City Ramblers - Canto di Natale.mp3'
p564
F1323640885.608896
sS"/media/archivio/trasmissioni/Bidoni/Puntata 3/Hear 'N Aid - We're Stars (HQ Audio).mp3"
p565
F1321383992.9046299
sS'/media/archivio/trasmissioni/OrcoTrio/Puntata2x7/Musica/Young Widows -  Future Heart.mp3'
p566
F1322176438.823976
sS'/media/archivio/trasmissioni/scrapjazz/NewScrapJazz/fondo/sigla.wav'
p567
F1321999444.9031501
sS"/media/archivio/trasmissioni/ultima mezzora leo/10/09 She's So.ogg"
p568
F1322438344.7366731
sS'/media/archivio/trasmissioni/caribbean vintage/c/2 - Toots  The Maytals   Do The Reggay.mp3'
p569
F1322851739.1997039
sS"/media/archivio/trasmissioni/(phi)^3/21nov/14 Papa's Got A Brand New Bag (live).mp3"
p570
F1321907734.4693589
sS'/media/archivio/trasmissioni/Politicazzi/Politicazzi 8/La Russa insulta Ascanio Celestini_ _Coglione_ (20_11_2011).mp3'
p571
F1321915038.9190569
sS'/media/archivio/trasmissioni/OrcoTrio/Puntata2x9/Jingles/Diaframma & Litfiba - Amsterdam.mp3'
p572
F1323386654.2679
sS'/media/archivio/trasmissioni/all 90 long/Scaletta 2011 12 01/08 - Space Oddity.mp3'
p573
F1322774868.1117179
sS'/media/archivio/trasmissioni/Sfasciacarrozze/2011-11-20/Cynic - Traced In Air - 04 - Integral Birth.mp3'
p574
F1321810886.906827
sS'/media/archivio/trasmissioni/ultima mezzora leo/11/13 Moto perpetuo.mp3'
p575
F1323304389.8583519
sS'/media/archivio/trasmissioni/pendente/basi pendente/03 Pizzica Tarantata.mp3'
p576
F1322929972.991195
sS'/media/archivio/trasmissioni/radiociclabile/SECONDA SERIA/7 antologia/8. De Andr\xc3\xa8 - Un ottico.mp3'
p577
F1322510460.4129491
sS'/media/archivio/trasmissioni/SoFia/13a WarGame/Furious Angels (CD 2 - Instrumental)/Rob Dougan - Left Me For Dead [instrumental].mp3'
p578
F1322430098.498328
sS'/media/archivio/trasmissioni/I DisGuidi/Puntata Tedesca - 30 Novembre/Rick Astley - Rickroll.mp3'
p579
F1322673277.1795101
sS'/media/archivio/trasmissioni/Bidoni/Puntata 3/Jingle Cats - Meowy Christmas.mp3'
p580
F1321385684.1423581
sS'/media/archivio/trasmissioni/Cinemando/16punt_14-12-2011/spezzoni/Fight Club Trailer ITA.mp3'
p581
F1323886371.014508
sS'/media/archivio/trasmissioni/MONO/MONO 2011-12 - p.6 - 24.11.2011 - ULTIMA PUNTATA/Sottofondi/52-Stevie Ray Vaughn - The House is a Rocking.mp3'
p582
F1322156222.860023
sS'/media/archivio/trasmissioni/scrapjazz/NewScrapJazz/sestafelice/Bitches Brew Disc 2/01 Spanish Key.mp3'
p583
F1322607655.9353211
sS'/media/archivio/trasmissioni/powerchords/2011-11-30/Fear factory-Repentance.mp3'
p584
F1322685458.637912
sS"/media/archivio/trasmissioni/caribbean vintage/c/Cassandra   Thankyou For The Many Things You've Done.mp3"
p585
F1322853096.5034299
sS"/media/archivio/trasmissioni/OrcoTrio/Puntata2x9/UM/Jingles/Bauhaus - Bela Lugosi's Dead.mp3"
p586
F1323385842.6926081
sS"/media/archivio/trasmissioni/(phi)^3/5dic/Little Miss Can't Be Wrong.mp3"
p587
F1323118340.0686331
sS'/media/archivio/trasmissioni/radiociclabile/SECONDA SERIA/radui/Leonard Cohen & Nick Cave & Kylie Minogue - Where The Wild Roses Grow(1).mp3'
p588
F1323720072.462393
sS'/media/archivio/trasmissioni/Alabama/programma 3/08.mp3'
p589
F1322592602.3914371
sS'/media/archivio/trasmissioni/(phi)^3/5dic/03 All Summer Long.mp3'
p590
F1323117304.5768549
sS'/media/archivio/trasmissioni/Made in Italy/PUNK 2 radiocicletta/Decibel - Il Leader - 1978.mp3'
p591
F1321379481.185462
sS'/media/archivio/trasmissioni/all 90 long/Scaletta 2011 11 24/Noir Desir - A ton etoile.mp3'
p592
F1322171089.0636051
sS'/media/archivio/trasmissioni/SoFia/15a Estintori/metallica-fight fire with fire.mp3'
p593
F1323035876.8671961
sS'/media/archivio/trasmissioni/radiociclabile/SECONDA SERIA/6 Sospiri/Les plaisirs sont doux Arm. G. Malatesta.mp3'
p594
F1321905505.431648
sS'/media/archivio/trasmissioni/Sfasciacarrozze/2011-12-11/Mastodon - 02 - March of the Fire Ants.mp3'
p595
F1323626723.798717
sS'/media/archivio/trasmissioni/Pisa&Love/Musiche/Sigla iniziale - Secret Diary of a Call Girl.mp3'
p596
F1323633877.7690589
sS'/media/archivio/trasmissioni/powerchords/2011-12-14_ultimapuntata/The Cyborgs - Dancy.mp3'
p597
F1323897545.2605691
sS'/media/archivio/trasmissioni/SoFia/13a WarGame/canzoni/marines.mp3'
p598
F1321825204.6518559
sS'/media/archivio/trasmissioni/Made in Italy/Made in Italy speciale PUNK/Patty Pravo - Pensiero stupendo.mp3'
p599
F1323189910.568222
sS'/media/archivio/trasmissioni/Bidoni/puntata 4/FORCED FT NIKO- TRE METRI SOPRA IL CIELO.wmv.mp3'
p600
F1323199030.269356
sS'/media/archivio/trasmissioni/MONO/MONO 2011-12 - p.6 - 24.11.2011 - ULTIMA PUNTATA/Varie Rock/Blue Oyster cult - Fire of Unknown Origin.mp3'
p601
F1322159986.890269
sS'/media/archivio/trasmissioni/OrcoTrio/Puntata2x8/Ultima Mezzorca/Jingles/When the Clouds  -  November Song.mp3'
p602
F1322781959.17733
sS'/media/archivio/trasmissioni/caribbean vintage/Puntata Colonne sonore/17 - Chaka Demus  Pliers - Bam Bam.mp3'
p603
F1322248713.8804901
sS'/media/archivio/trasmissioni/all 90 long/Scaletta 2011 12 01/Sottofondi/Original Star Trek Theme.mp3'
p604
F1322775470.651392
sS'/media/archivio/trasmissioni/ScrapJazz/sottofondo/Flirt a Rio Piero Umiliani Easy Tempo, Vol. 4.mp3'
p605
F1323212512.9661541
sS"/media/archivio/trasmissioni/PLUG/2^STAGIONE/PLUG 8/Jovanotti - L'ombelico Del Mondo.mp3"
p606
F1323119774.814533
sS'/media/archivio/trasmissioni/scrapjazz/NewScrapJazz/sestafelice/08 Boplicity.mp3'
p607
F1322604233.7366569
sS'/media/archivio/trasmissioni/all 90 long/Scaletta 2011 11 24/Charge 69 - 12 - Fin De Siecle  (www.Pirate-Punk.net).mp3'
p608
F1322169551.9395781
sS'/media/archivio/trasmissioni/(phi)^3/5dic/Samples_Applausi.mp3'
p609
F1323117844.516088
sS'/media/archivio/trasmissioni/all 90 long/Scaletta 2011 12 08/Effetti/Survivor - Eye Of The Tiger.mp3'
p610
F1323381589.310034
sS'/media/archivio/trasmissioni/Pisa&Love/8 punt_27-11/5. Queen - Love Of My Life.mp3'
p611
F1322426735.1703629
sS'/media/archivio/trasmissioni/OrcoTrio/Puntata2x7/Jingles/Pearl Jam  - Jeremy.mp3'
p612
F1322175458.9565189
sS'/media/archivio/trasmissioni/Bidoni/Puntata 2/jingles/Mexican Nyan Cat.mp3'
p613
F1322594571.4205871
sS'/media/archivio/trasmissioni/Gli Spacciaserie/9a puntata bis/League - musica/Bobby_Joyner_-_Business_In_the_Front_And_Party_In_The_Back_hifi.mp3'
p614
F1322771000.435755
sS'/media/archivio/trasmissioni/pendente/2011-12-03/Once Upon a Time in America (Theme by Ennio Morricone).mp3'
p615
F1322928619.7844419
sS'/media/archivio/trasmissioni/powerchords/2011-12-14_ultimapuntata/Five Four Nine - Wicked Son.mp3'
p616
F1323899153.7564361
sS'/media/archivio/trasmissioni/MONO/MONO 2011-12 - p.6 - 24.11.2011 - ULTIMA PUNTATA/Sottofondi/27- Bang Your Head (Metal Health).mp3'
p617
F1322154770.6102929
sS'/media/archivio/trasmissioni/GROOVIERA/6dic/02 -Erick Sermon feat. Marvin Gaye - Music-[www.flv2mp3.com].mp3'
p618
F1323202771.157515
sS'/media/archivio/trasmissioni/OrcoTrio/Puntata2x7/Jingles/AC-DC - Back in Black.mp3'
p619
F1322173015.186358
sS'/media/archivio/trasmissioni/Gli Spacciaserie/9a puntata bis/League - musica/Scott Warren - Speed of sound.mp3'
p620
F1322771621.2290759
sS'/media/archivio/trasmissioni/Pisa&Love/7 punt_20-11/1. Blind Guardian - Fly.mp3'
p621
F1321820202.4938281
sS'/media/archivio/trasmissioni/PLUG/2^STAGIONE/PLUG 6/jingle__THIS IS PLUG.mp3'
p622
F1321912073.860595
sS"/media/archivio/trasmissioni/MONO/MONO 2011-12 - p.6 - 24.11.2011 - ULTIMA PUNTATA/Varie Rock/Blue Oyster Cult - (Don't Fear) The Reaper.mp3"
p623
F1322159033.0597799
sS'/media/archivio/trasmissioni/OrcoTrio/Puntata2x8/Musica/sigla_OrcoTrio.mp3'
p624
F1322777066.675354
sS'/media/archivio/trasmissioni/(phi)^3/21nov/03 Crash Into Me.mp3'
p625
F1321906449.73454
sS'/media/archivio/trasmissioni/Pisa&Love/Musiche/Sigla finale - Fabrizio De Andr\xc3\xa8 - A dumenega.mp3'
p626
F1323637328.733763
sS'/media/archivio/trasmissioni/caribbean vintage/Puntata Colonne sonore/The Gatherers   Words of my mouth + Dub  KILLER.mp3'
p627
F1322248470.6316681
sS'/media/archivio/trasmissioni/OrcoTrio/Puntata2x7/Ultima Mezzorca/Noir Desir - Gagnant Perdants.mp3'
p628
F1322177508.906039
sS'/media/archivio/trasmissioni/Cinemando/16punt_14-12-2011/02_Various Artists - Homework.mp3'
p629
F1323887124.17554
sS'/media/archivio/trasmissioni/Made in Italy/speciale cantautori/Gianfranco Manfredi - Ma chi ha detto che non c 39.mp3'
p630
F1322587694.437748
sS'/media/archivio/trasmissioni/GROOVIERA/6dic/08Common - Sweet (2011).mp3'
p631
F1323204123.3308251
sS'/media/archivio/trasmissioni/SoFia/13a WarGame/canzoni/Inno dei Bersaglieri - La Corsa.mp3'
p632
F1321829280.940515
sS'/media/archivio/trasmissioni/Made in Italy/speciale cantautori/Franco Battiato l 39era del Cinghiale bianco.mp3'
p633
F1322588628.6361301
sS'/media/archivio/trasmissioni/all 90 long/Scaletta 2011 11 24/Mano Negra - Out Of Time Man.mp3'
p634
F1322171922.6961801
sS'/media/archivio/trasmissioni/all 90 long/Scaletta 2011 12 08/Nirvana - 04 - Been A Son.mp3'
p635
F1323378833.2146349
sS'/media/archivio/trasmissioni/ultima mezzora mario/28-11-2011/bob_dylan-blood_in_my_eyes.mp3'
p636
F1322522641.145196
sS'/media/archivio/trasmissioni/GROOVIERA/22novembrewithandrew/06Digable Planets - 06 - Rebirth of slick.mp3'
p637
F1321993443.976083
sS'/media/archivio/trasmissioni/Mai dire cicletta/base/Children base.mp3'
p638
F1323713740.9121931
sS'/media/archivio/trasmissioni/ScrapJazz/spool/gianluigi trovesi with rava/03 Traccia 3.wma'
p639
F1323210251.9672639
sS'/media/archivio/trasmissioni/Cinemando/14punt_30-11-2011/01 Prelude and Rooftop.mp3'
p640
F1322679907.7402799
sS'/media/archivio/trasmissioni/Bidoni/Puntata 1/jingle/07 - Famine.mp3'
p641
F1323201375.1104679
sS'/media/archivio/trasmissioni/powerchords/Basi Definitive/base - The Trooper.mp3'
p642
F1323898166.9729481
sS'/media/archivio/trasmissioni/Bidoni/puntata 4/Squadra Italia- Una vecchia canzone italiana.mp3'
p643
F1323200826.7912719
sS'/media/archivio/trasmissioni/Cinemando/14punt_30-11-2011/05 By The Fireside.mp3'
p644
F1322679450.4023671
sS"/media/archivio/trasmissioni/OrcoTrio/Puntata2x7/Jingles/Sweet - Need A Lot Of Lovin'-.mp3"
p645
F1322174588.6359911
sS'/media/archivio/trasmissioni/(phi)^3/5dic/Lo Spazio - Guida Galattica per Autostoppisti.mp3'
p646
F1323118072.840487
sS'/media/archivio/trasmissioni/powerchords/Basi Definitive/redbase3.mp3'
p647
F1323899817.7460561
sS'/media/archivio/trasmissioni/pendente/basi pendente/08 Pansu Allu Trainu.mp3'
p648
F1321719911.9484439
sS'/media/archivio/trasmissioni/Sfasciacarrozze/La Sfasciasigla.mp3'
p649
F1322417417.1486011
sS'/media/archivio/trasmissioni/scrapjazz/01_SONG_x.MP3'
p650
F1322002193.8872221
sS'/media/archivio/trasmissioni/pendente/2011-12-03/Mario Incudine - Tuluma feat M.Venuti e A. Vitale.mp3'
p651
F1322931822.2537341
sS'/media/archivio/trasmissioni/powerchords/2011-12-14_ultimapuntata/Led Zeppelin - Immigrant Song.mp3'
p652
F1323894822.2841411
sS'/media/archivio/trasmissioni/GROOVIERA/29nov/08Clima arido - 03 - BENTORNATO - BISA_CURA_DOC TRASHZ.mp3'
p653
F1322600028.6545
sS'/media/archivio/trasmissioni/scrapjazz/NewScrapJazz/fondo/04 - Kensington Chump.mp3'
p654
F1322002786.5990291
sS'/media/archivio/trasmissioni/Mai dire cicletta/2011-12-12/Linkin Park - In The End.mp3'
p655
F1323714811.17623
sS"/media/archivio/trasmissioni/PLUG/2^STAGIONE/PLUG 6/06 - Basement Jaxx - Where's Your Head At .mp3"
p656
F1321910451.4977219
sS'/media/archivio/trasmissioni/Ultima mezzora carlo/2011-12-11/04 Jimi Hendrix - The Wind Cries Mary.mp3'
p657
F1323646411.0849061
sS'/media/archivio/trasmissioni/Alabama/programma 5/04.mp3'
p658
F1321381049.978457
sS'/media/archivio/trasmissioni/Alabama/programma 3/8.wav'
p659
F1322592616.903722
sS'/media/archivio/trasmissioni/OrcoTrio/Puntata2x9/Musica/Siouxsie & the Banshees - Spellbound.mp3'
p660
F1323384801.5252471
sS'/media/archivio/trasmissioni/Made in Italy/Made in Italy speciale New Wave/Donatella Rettore Delirio.mp3'
p661
F1321981587.4565549
sS'/media/archivio/trasmissioni/powerchords/2011-11-30/Aerosmith - Crazy.mp3'
p662
F1322688778.9880171
sS"/media/archivio/trasmissioni/GROOVIERA/martedi15/02Ol' Dirty Bastard-Shimmy Shimmy Ya.mp3"
p663
F1321388128.7265699
sS'/media/archivio/trasmissioni/Politicazzi/sigle/01PallePalle.mp3'
p664
F1323126140.3792989
sS'/media/archivio/trasmissioni/GROOVIERA/22novembrewithandrew/12 - revolution 5 feat chali 2na a.mp3'
p665
F1321995556.161634
sS'/media/archivio/trasmissioni/pendente/2011-11-19/Spunta la luna dal monte.mp3'
p666
F1321721200.548461
sS'/media/archivio/trasmissioni/radiociclabile/SECONDA SERIA/6 Sospiri/Seether - Careless Whisper.mp3'
p667
F1321903944.6722629
sS'/media/archivio/trasmissioni/GROOVIERA/martedi15/03OooH- De La Soul.mp3'
p668
F1321388367.255784
sS'/media/archivio/trasmissioni/GROOVIERA/29nov/13LA FAMIGLIA Amici.mp3'
p669
F1322601795.9590831
sS'/media/archivio/trasmissioni/OrcoTrio/Puntata2x9/UM/Jingles/Love is Colder Than Death - Very I\xc2\xb4ll.mp3'
p670
F1323386194.6062031
sS'/media/archivio/trasmissioni/Alabama/programma4/Sum 41- The Hell Song.mp3'
p671
F1321380570.313602
sS'/media/archivio/trasmissioni/caribbean vintage/mondiska/09 - YOUR WONDERING NOW ORIGINAL SKA VERSION BY ANDY AND JOEY.mp3'
p672
F1322854667.4108081
sS'/media/archivio/trasmissioni/OrcoTrio/Puntata2x8/Musica/Elio E Le Storie Tese - Balla Coi Barlaf\xc3\xbcs.mp3'
p673
F1322779504.498472
sS'/media/archivio/trasmissioni/Made in Italy/speciale cantautori/Luigi Tenco - Ciao amore ciao - 1967.mp3'
p674
F1322586382.448518
sS'/media/archivio/trasmissioni/ultima mezzora mario/altre canzoni occhi/Miavagadilania -  il mare ci salira\xcc\x80 negli occhi.mp3'
p675
F1322524368.06581
sS'/media/archivio/trasmissioni/Bidoni/puntata 4/Negazione - Tutti pazzi.mp3'
p676
F1323199514.0104661
sS'/media/archivio/trasmissioni/radiociclabile/SECONDA SERIA/6 Sospiri/ENNIO MORRICONE_ _Sospiri Da Una Radio Lontana_ (1975).mp3'
p677
F1321905752.5398791
sS'/media/archivio/trasmissioni/caribbean vintage/puntata 11-11-11/16-ziggi-gonna_leave_you.mp3'
p678
F1321643122.211319
sS'/media/archivio/trasmissioni/all 90 long/Scaletta 2011 12 01/08_Far Out.mp3'
p679
F1322776278.6817851
sS"/media/archivio/trasmissioni/SoFia/13a WarGame/canzoni/Guns n' Roses - Civil War.mp3"
p680
F1321827652.6959269
sS'/media/archivio/trasmissioni/Suppostine/20111118/Life On Mars - David Bowie.mp3'
p681
F1321640639.8649099
sS'/media/archivio/trasmissioni/all 90 long/Scaletta 2011 12 08/301-elio_e_le_storie_tese-born_to_be_abramo.mp3'
p682
F1323380937.547606
sS'/media/archivio/trasmissioni/Pisa&Love/9 punt_4-12/7. The Doors - People Are Strange.mp3'
p683
F1323032227.985477
sS'/media/archivio/trasmissioni/powerchords/Basi Definitive/base - Bombtrack.mp3'
p684
F1323894680.544008
sS'/media/archivio/trasmissioni/ultima mezzora mario/31-10-2011/Perry Frank - CandleLight.mp3'
p685
F1321920194.002666
sS'/media/archivio/trasmissioni/ultima mezzora leo/11/08 Saint Jack.mp3'
p686
F1323302150.7662489
sS'/media/archivio/trasmissioni/caribbean vintage/Puntata Colonne sonore/Gregory Isaacs   Slave Master.mp3'
p687
F1322249777.4150751
sS'/media/archivio/trasmissioni/radiociclabile/SECONDA SERIA/7 antologia/Shakira - Antologia.mp3'
p688
F1322510184.007714
sS'/media/archivio/trasmissioni/GROOVIERA/22novembrewithandrew/07pharcyde Drop.mp3'
p689
F1321993895.556334
sS'/media/archivio/trasmissioni/(phi)^3/21nov/09 Respect.mp3'
p690
F1321907407.209811
sS'/media/archivio/trasmissioni/ScrapJazz/4a_puntata/Stan Getz Quartet/01 Annie From Abyssinie.m4a'
p691
F1323210899.2748799
sS'/media/archivio/trasmissioni/Gli Spacciaserie/9a puntata bis/base_Yoas_Project-The_project.mp3'
p692
F1322772625.5068829
sS'/media/archivio/trasmissioni/I DisGuidi/Puntata Tedesca - 30 Novembre/No Woman No Cry.mp3'
p693
F1322674051.4080291
sS'/media/archivio/trasmissioni/Ultima mezzora carlo/2011-11-20/YOUR LOVE- Ennio Morricone & Dulce Pontes.mp3'
p694
F1321831316.0531261
sS'/media/archivio/trasmissioni/powerchords/Basi Definitive/metallicabase1.mp3'
p695
F1323897344.1775739
sS'/media/archivio/trasmissioni/(phi)^3/5dic/1-03 Full Moon.mp3'
p696
F1323119487.1959791
sS'/media/archivio/trasmissioni/Made in Italy/PUNK 2 radiocicletta/Erode - Banditi.mp3'
p697
F1321378578.735168
sS'/media/archivio/trasmissioni/Rapsodia/Rapsodia2.0/puntata queen 12-14-2011/queen/Queen - The Show Must Go On   [Official Music Video].mp3'
p698
F1323891481.5755639
sS'/media/archivio/trasmissioni/pendente/basi pendente/12 Roca.mp3'
p699
F1322929072.049212
sS'/media/archivio/trasmissioni/(phi)^3/5dic/Tornado Siren-SoundBible.com-8970269.wav'
p700
F1323116329.9709339
sS'/media/archivio/trasmissioni/Alabama/programma con bene!!!/Led Zeppelin  - Immigrant song.mp3'
p701
F1321386644.762387
sS'/media/archivio/trasmissioni/Ultima mezzora carlo/2011-12-04/Subsonica - Nicotina groove.mp3'
p702
F1323042030.714293
sS'/media/archivio/trasmissioni/scrapjazz/NewScrapJazz/sestafelice/03 Footprints.m4a'
p703
F1322605963.6395099
sS'/media/archivio/trasmissioni/OrcoTrio/Puntata2x9/Musica/Joy Division - Decades.mp3'
p704
F1323383982.645808
sS'/media/archivio/trasmissioni/OrcoTrio/Puntata2x7/Musica/Doppiofondo - Nei miei Sogni di Ieri.mp3'
p705
F1322173334.842576
sS'/media/archivio/trasmissioni/ultima mezzora leo/12/03 1_2.ogg'
p706
F1323905755.038343
sS'/media/archivio/trasmissioni/ultima mezzora leo/10/08 Grey Room.mp3'
p707
F1322437289.2578471
sS'/media/archivio/trasmissioni/SoFia/13a WarGame/canzoni/Metallica - One.mp3'
p708
F1321828785.359319
sS"/media/archivio/trasmissioni/Politicazzi/Politicazzi NONNA/06 - Zakalicius - A'signore.mp3"
p709
F1322519005.6756091
sS'/media/archivio/trasmissioni/OrcoTrio/Puntata2x7/Ultima Mezzorca/Jingles/Type O Negative- The misinterpetation of silence and its disastrous consequences.mp3'
p710
F1322177572.484107
sS'/media/archivio/trasmissioni/(phi)^3/21nov/02 Rumour Has It.mp3'
p711
F1321907683.487469
sS'/media/archivio/trasmissioni/powerchords/2011-11-30/RATM - Down Rodeo.mp3'
p712
F1322686361.206718
sS'/media/archivio/trasmissioni/powerchords/2011-12-07/Litfiba - Cane.mp3'
p713
F1323290956.3108039
sS'/media/archivio/trasmissioni/Bidoni/Puntata 3/JO SQUILLO WHOLE LOTTA LOVE (FESTIVALBAR 1990).mp3'
p714
F1321385686.2115321
sS'/media/archivio/trasmissioni/MONO/MONO 2011-12 - p.6 - 24.11.2011 - ULTIMA PUNTATA/Varie Soundtrack/ROBIN HOOD - Whistle Stop (Roger Miller).mp3'
p715
F1322156046.880156
sS"/media/archivio/trasmissioni/Politicazzi/Politicazzi NONNA/Zecchino d'Oro 2010 - Il Contadino.mp3"
p716
F1322521558.820992
sS'/media/archivio/trasmissioni/radiociclabile/SECONDA SERIA/7 antologia/Antologia - Luz.mp3'
p717
F1322508525.984724
sS'/media/archivio/trasmissioni/Alabama/programma 3/5.wav'
p718
F1322591686.8591959
sS"/media/archivio/trasmissioni/Made in Italy/Made in Italy speciale New Wave/02 - Preachin' blues.mp3"
p719
F1321983322.184155
sS'/media/archivio/trasmissioni/Cinemando/15punt_07-12-2011/trailer.mp3'
p720
F1323281426.7167239
sS'/media/archivio/trasmissioni/Sfasciacarrozze/2011-12-4/02 - none of them knew they.mp3'
p721
F1323019395.925395
sS'/media/archivio/trasmissioni/(phi)^3/5dic/01 jerk it out.mp3'
p722
F1323119260.969681
sS'/media/archivio/trasmissioni/SoFia/14a Scarpa/elio e le storie tese la follia della donna.mp3'
p723
F1322428137.8564479
sS'/media/archivio/trasmissioni/PLUG/1^STAGIONE/plug 5/SOTTOFONDO/De Ushuaia a La Quiaca - Version RYXP (1).mp3'
p724
F1322516378.43592
sS"/media/archivio/trasmissioni/ultima mezzora leo/11/04 L'uomo che continua.mp3"
p725
F1323303801.8996849
sS'/media/archivio/trasmissioni/radiociclabile/SECONDA SERIA/radui/Sefyu Molotov Clash Booba - Skyrock.mp3'
p726
F1323717713.776233
sS"/media/archivio/trasmissioni/Rapsodia/Rapsodia2.0/puntata 11-30-2011 freddy mercury/queen/9. freddie mercury [mercoled\xc3\xac 30 novembre '11]/living on my own - freddie mercury.mp3"
p727
F1322682530.8825359
sS'/media/archivio/trasmissioni/scrapjazz/01___FRE.MP3'
p728
F1322000622.5435829
sS'/media/archivio/trasmissioni/(phi)^3/21nov/Praise You.mp3'
p729
F1321906353.2050519
sS'/media/archivio/trasmissioni/I DisGuidi/Puntata 12 - 14 Dicembre/Gira La Carta - Fabrizio De Andr\xc3\xa9.mp3'
p730
F1323885762.311331
sS'/media/archivio/trasmissioni/scrapjazz/quarta/08 The Ever Evolving Etude.m4a'
p731
F1321397216.6905251
sS'/media/archivio/trasmissioni/radiociclabile/SECONDA SERIA/6 Sospiri/Jane Birkin et Serge Gainsbourg - Je Taime,...Moi Non Plus.mp3'
p732
F1321903582.6593609
sS'/media/archivio/trasmissioni/scrapjazz/NewScrapJazz/sestafelice/02 - Black Satin.mp3'
p733
F1322607528.3252561
sS'/media/archivio/trasmissioni/GROOVIERA/29nov/11Ghemon - Nessuno \xc3\xa8 Perfetto [Prod. Fid Mella].mp3'
p734
F1322601082.110306
sS'/media/archivio/trasmissioni/Pisa&Love/9 punt_4-12/1. Staind - So Far Away.mp3'
p735
F1323029234.444335
sS'/media/archivio/trasmissioni/pendente/2011-12-03/Sud Sound System - Ciao Amore.mp3'
p736
F1322931579.7457719
sS'/media/archivio/trasmissioni/all 90 long/Scaletta 2011 12 01/Sottofondi/10-incubus-battlestar_scralatchtica-dnr.mp3'
p737
F1322776335.346133
sS'/media/archivio/trasmissioni/Pisa&Love/8 punt_27-11/4. The Ramones - Baby I Love You.mp3'
p738
F1322425952.994621
sS'/media/archivio/trasmissioni/OrcoTrio/Puntata2x9/Jingles/Opeth - Famine.mp3'
p739
F1323384951.938458
sS'/media/archivio/trasmissioni/Pisa&Love/10 punt_11-12/6 - Bon Jovi - You Give Love A Bad Name.mp3'
p740
F1323637165.131968
sS'/media/archivio/trasmissioni/Politicazzi/sigle/canzoamore.mp3'
p741
F1323126257.4562011
sS'/media/archivio/trasmissioni/GROOVIERA/22novembrewithandrew/13Remember His Name.m4a'
p742
F1321995752.224911
sS'/media/archivio/trasmissioni/Alabama/programma con bene!!!/12 kamala versava da bere.mp3'
p743
F1321386473.4386041
sS'/media/archivio/trasmissioni/Politicazzi/sigle/SIIIOMIFERMOQUII.mp3'
p744
F1323124663.8594689
sS'/media/archivio/trasmissioni/caribbean vintage/Puntata Colonne sonore/Kiddus I   Graduation In Zion.mp3'
p745
F1322251227.981127
sS'/media/archivio/trasmissioni/GROOVIERA/29nov/04Black Moon Stay Real.mp3'
p746
F1322598513.036505
sS'/media/archivio/trasmissioni/I DisGuidi/Puntata 11 - 7 Dicembre.odt/Toto - Hold The Line.mp3'
p747
F1323278985.7489841
sS'/media/archivio/trasmissioni/ultima mezzora leo/11/02 Swastika Girls.ogg'
p748
F1323306464.3248849
sS'/media/archivio/trasmissioni/pendente/basi pendente/09 Tarantella Frigia.mp3'
p749
F1322928950.0540349
sS'/media/archivio/trasmissioni/GROOVIERA/29nov/10TPS POSSE - La sagra della cima - 14 La mia paura.mp3'
p750
F1322600766.268132
sS'/media/archivio/trasmissioni/Made in Italy/progressive italia/Osanna   -Luomo-.mp3'
p751
F1323193913.9079199
sS"/media/archivio/trasmissioni/pendente/2011-12-03/06 L'emigranti-1.mp3"
p752
F1322928359.998462
sS'/media/archivio/trasmissioni/Sfasciacarrozze/2011-11-27/4_hastaelnightjar_live.mp3'
p753
F1322415334.546072
sS'/media/archivio/trasmissioni/radiociclabile/SECONDA SERIA/radui/10 - Troggs - Hi Hi Hazel.mp3'
p754
F1323718378.4358699
sS'/media/archivio/trasmissioni/ultima mezzora mario/ultima/08-Arrivederci o addio_.mp3'
p755
F1323130634.0890329
sS'/media/archivio/trasmissioni/Alabama/programma 5/maieutica   bananarama.mp3'
p756
F1321381456.8189161
sS'/media/archivio/trasmissioni/ultima mezzora mario/ultima/15-Peter Cincotti - Goodbye Philadelphia.mp3'
p757
F1323129121.7695451
sS'/media/archivio/trasmissioni/scrapjazz/NewScrapJazz/sestafelice/02 Miles Davis - Lonely Fire.mp3'
p758
F1322607213.2720671
sS'/media/archivio/trasmissioni/Ultima mezzora carlo/2011-11-30/La Biblioteca Deserta - When Removed The Impression Remains.mp3'
p759
F1322695638.226948
sS'/media/archivio/trasmissioni/powerchords/2011-12-07/Nanowar of Steel - Blood of the Queens.mp3'
p760
F1323292146.565938
sS'/media/archivio/trasmissioni/Made in Italy/PUNK 2 radiocicletta/Bloody riot- -Io Odio I Frikkettoni-.mp3'
p761
F1321377558.4010789
sS'/media/archivio/trasmissioni/Sfasciacarrozze/2011-11-27/5_vertigine_live.mp3'
p762
F1322416232.5506971
sS'/media/archivio/trasmissioni/Alabama/programma 5/Maria Gadu, Shimbalai.mp3'
p763
F1321380670.845289
sS'/media/archivio/trasmissioni/Gli Spacciaserie/8a puntata bis/Marco Notari feat Tommaso Cerasuolo - Le stelle ci cambieran.m4a'
p764
F1322166928.9066911
sS'/media/archivio/trasmissioni/ultima mezzora mario/altre canzoni occhi/Estra - Ai Tuoi Occhi.mp3'
p765
F1323734577.1999669
sS'/media/archivio/trasmissioni/powerchords/film/BerlinguerTVB - Sproloquio blasfemo.mp3'
p766
F1323294703.896811
sS'/media/archivio/trasmissioni/OrcoTrio/Puntata2x7/Ultima Mezzorca/Jingles/Queens Of The Stone Age - The Lost Art Of Keeping A Secret.mp3'
p767
F1322178116.3721261
sS'/media/archivio/trasmissioni/ultima mezzora mario/21-11-2011/Almamegretta -Terra.mp3'
p768
F1321918118.214895
sS'/media/archivio/trasmissioni/ultima mezzora mario/altre canzoni occhi/Lou Reed & The Velvet Underground - The Best of Lou Reed & The Velvet Underground - 05 - Pale Blue Eyes.mp3'
p769
F1323735222.949193
sS'/media/archivio/trasmissioni/Bidoni/puntata 4/Me Brucia er Bucio by DANIELE O. & MR. P.mp3'
p770
F1323201174.1910009
sS"/media/archivio/trasmissioni/GROOVIERA/22novembrewithandrew/02Public Enemy - Fight the power - Power To The People And The Beats, Public Enemy's Greatest Hits.mp3"
p771
F1321992179.294481
sS'/media/archivio/trasmissioni/Ultima mezzora carlo/2011-12-11/Pink Floyd The Wall - Pink Floyd - Comfortably Numb.mp3'
p772
F1323646063.1670671
sS'/media/archivio/trasmissioni/Made in Italy/PUNK 2 radiocicletta/08_Letormenta_La-Luna.mp3'
p773
F1321379778.0741839
sS'/media/archivio/trasmissioni/Sfasciacarrozze/2011-12-4/10 - Ululallaluna.mp3'
p774
F1323021719.976932
sS'/media/archivio/trasmissioni/(phi)^3/5dic/02 Boogie wonderland.mp3'
p775
F1323117926.9855881
sS'/media/archivio/trasmissioni/powerchords/2011-12-14_ultimapuntata/Slipknot - Before I Forget.mp3'
p776
F1323898427.4818659
sS'/media/archivio/trasmissioni/(phi)^3/5dic/SCATMAN.mp3'
p777
F1323116781.8263991
sS'/media/archivio/trasmissioni/PLUG/2^STAGIONE/PLUG 8/Afro Celt Sound System - 2003 Seed - 07 - Rise Above It.mp3'
p778
F1323121018.248368
sS"/media/archivio/trasmissioni/Rapsodia/Rapsodia2.0/puntata 11-23-2011/Bluvertigo - L'Assenzio.mp3"
p779
F1322076706.025974
sS'/media/archivio/trasmissioni/Alabama/programma 3/05.mp3'
p780
F1322591640.3142221
sS'/media/archivio/trasmissioni/scrapjazz/NewScrapJazz/fondo/08 - Shit! Shit! Shit!.mp3'
p781
F1322002668.7344439
sS'/media/archivio/trasmissioni/(phi)^3/21nov/IA-Cielo Oscurato-Ironia.mp3'
p782
F1321907462.9260631
sS'/media/archivio/trasmissioni/ultima mezzora leo/10/05 Gold Heart Mountain Top Queen Directory.ogg'
p783
F1322435768.616152
sS'/media/archivio/trasmissioni/(phi)^3/28nov/Samples_Applausi.mp3'
p784
F1322514135.367996
sS'/media/archivio/trasmissioni/(phi)^3/28nov/1-03 Messa da Requiem (1995 Digital.mp3'
p785
F1322510935.8034699
sS'/media/archivio/trasmissioni/Politicazzi/sigle/bracardi/Bracardi - affangala.mp3'
p786
F1323126046.533499
sS'/media/archivio/trasmissioni/GROOVIERA/29nov/02Boot Camp Clik - And So (High Quality).mp3'
p787
F1322597933.063612
sS'/media/archivio/trasmissioni/Rapsodia/Rapsodia2.0/puntata 11-30-2011 freddy mercury/queen/Queen - These Are The Days Of Our Lives.mp3'
p788
F1322684662.3136311
sS'/media/archivio/trasmissioni/Mai dire cicletta/2011-11-28/Metronomy - The Bay.mp3'
p789
F1322501673.0053201
sS'/media/archivio/trasmissioni/OrcoTrio/Puntata2x8/Jingles/Soundgarden - Spoonman.mp3'
p790
F1322779748.271286
sS'/media/archivio/trasmissioni/scrapjazz/quarta/01 Orbits.m4a'
p791
F1321394992.6343989
sS'/media/archivio/trasmissioni/GROOVIERA/martedi15/04De La Soul Feat. Chaka Khan - All Good.mp3'
p792
F1321388640.8192041
sS'/media/archivio/trasmissioni/Cinemando/16punt_14-12-2011/06_Various Artists - Psycho Boy Jack.mp3'
p793
F1323887578.9221261
sS'/media/archivio/trasmissioni/Mai dire cicletta/base/Carnaval de Paris base.mp3'
p794
F1322501669.222832
sS'/media/archivio/trasmissioni/GROOVIERA/martedi15/06[__NEW__] Chiddy Bang - Here We Go (Ft. Q-Tip) [HQ].mp3'
p795
F1321389110.4143231
sS'/media/archivio/trasmissioni/OrcoTrio/Puntata2x9/Jingles/ A Perfect Circle - Annihilation.mp3'
p796
F1323382953.4994569
sS'/media/archivio/trasmissioni/Cinemando/15punt_07-12-2011/01 - Tenacious D - Kickapoo.mp3'
p797
F1323281972.237258
sS'/media/archivio/trasmissioni/Cinemando/14punt_30-11-2011/12 The Past and The Girl.mp3'
p798
F1322679633.344609
sS'/media/archivio/trasmissioni/ultima mezzora leo/10/02 Astralbody.ogg'
p799
F1322438024.974504
sS"/media/archivio/trasmissioni/Rapsodia/Rapsodia2.0/puntata queen 12-14-2011/Queen - It's A Hard Life.mp3"
p800
F1323891818.4947929
sS'/media/archivio/trasmissioni/powerchords/Basi Definitive/alice1.mp3'
p801
F1322690216.726275
sS'/media/archivio/trasmissioni/caribbean vintage/puntata cover/07 - The mighty diamonds- Lay lady lay.mp3'
p802
F1321644333.223392
sS'/media/archivio/trasmissioni/all 90 long/Scaletta 2011 11 24/07 Around the World.mp3'
p803
F1322172842.2969
sS'/media/archivio/trasmissioni/OrcoTrio/Puntata2x8/Jingles/Twisted Sister - I Wanna Rock.mp3'
p804
F1322780425.9795849
sS'/media/archivio/trasmissioni/Made in Italy/speciale cantautori/De Andr - Un chimico.mp3'
p805
F1322586768.818398
sS'/media/archivio/trasmissioni/Sfasciacarrozze/2011-11-20/Apocalypse 91...The Enemy Strikes Black - 14 - Bring Tha Noize (With Anthrax).mp3'
p806
F1321809447.9680049
sS'/media/archivio/trasmissioni/I DisGuidi/Puntata Tedesca - 30 Novembre/08-Bobby Jean.mp3'
p807
F1322675386.995851
sS'/media/archivio/trasmissioni/OrcoTrio/Puntata2x7/Jingles/She Wants Revenge - Replacement.mp3'
p808
F1322176927.3197069
sS'/media/archivio/trasmissioni/caribbean vintage/Puntata Colonne sonore/01 - Roots Time Band - Good morning Jamaica .mp3'
p809
F1322250294.622412
sS'/media/archivio/trasmissioni/all 90 long/Scaletta 2011 12 01/Track 10.mp3'
p810
F1322776938.6523831
sS'/media/archivio/trasmissioni/all 90 long/Scaletta 2011 11 24/Sottofondi/04 - Flat Beat (Radio edit).mp3'
p811
F1322171275.555496
sS'/media/archivio/trasmissioni/Politicazzi/PoliticazziDieci/00-Renato Rascel - \xc3\x88 Arrivata La Bufera (1956).mp3'
p812
F1323123271.1396201
sS'/media/archivio/trasmissioni/GROOVIERA/29nov/12 PRRR.mp3'
p813
F1322601415.927716
sS'/media/archivio/trasmissioni/MONO/MONO 2011-12 - p.6 - 24.11.2011 - ULTIMA PUNTATA/Sottofondi/5-Captain & Tennile - Do that to me one more time.mp3'
p814
F1322160740.4958839
sS'/media/archivio/trasmissioni/OrcoTrio/Puntata2x9/UM/Love Is Colder Than Death - Wild World.mp3'
p815
F1323386487.8978679
sS'/media/archivio/trasmissioni/(phi)^3/21nov/Struttura-Reale.mp3'
p816
F1321906900.552177
sS'/media/archivio/trasmissioni/radiociclabile/SECONDA SERIA/7 antologia/Enrico Ruggeri (con i Decibel) - Contessa.mp3'
p817
F1322508972.127202
sS"/media/archivio/trasmissioni/all 90 long/Scaletta 2011 12 01/02 - Kate Bush - Rocket Man (I Think It's Going To Be A Long, Long Time).mp3"
p818
F1322774473.3673489
sS'/media/archivio/trasmissioni/radiociclabile/SECONDA SERIA/6 Sospiri/= Colonna sonora = Goblin - Suspiria (gothic horror industrial rock soundtrack).mp3'
p819
F1321905080.571728
sS'/media/archivio/trasmissioni/Cinemando/16punt_14-12-2011/spezzoni/Regole_del_fight_club.mp3'
p820
F1323887630.3223121
sS"/media/archivio/trasmissioni/Politicazzi/Politicazzi NONNA/Gaffe Rai ''Come sta la vittima_'Miriam Leone Unomattina.mp3"
p821
F1322520611.9935081
sS'/media/archivio/trasmissioni/Sfasciacarrozze/2011-11-27/05 come alive.mp3'
p822
F1322412724.8418729
sS'/media/archivio/trasmissioni/GROOVIERA/25ott/01Bruno Mars Feat. Damian Marley - Liquor Store Blues [Official Music Video].mp3'
p823
F1322602387.559948
sS'/media/archivio/trasmissioni/Made in Italy/speciale cantautori/DON CHISCIOTTE.mp3'
p824
F1322587293.8547969
sS'/media/archivio/trasmissioni/radiociclabile/SECONDA SERIA/7 antologia/1. Botch - Spaim & Japam (Tracks 1 & 2).mp3'
p825
F1322507735.1419871
sS'/media/archivio/trasmissioni/ultima mezzora leo/10/1-07 Fostercare.mp3'
p826
F1322437808.508085
sS'/media/archivio/trasmissioni/powerchords/Basi Definitive/ledbase1.mp3'
p827
F1323899360.3501501
sS'/media/archivio/trasmissioni/pendente/basi pendente/08 Macaria.mp3'
p828
F1321719664.4338081
sS'/media/archivio/trasmissioni/Gli Spacciaserie/9a puntata bis/Spoiler/Dexters06e09.ogg'
p829
F1322772194.9581611
sS'/media/archivio/trasmissioni/all 90 long/Scaletta 2011 12 08/01 - Fuel.mp3'
p830
F1323379625.920378
sS'/media/archivio/trasmissioni/Ultima mezzora carlo/2011-11-30/08 Pills.mp3'
p831
F1322695950.9233339
sS'/media/archivio/trasmissioni/Alabama/programma 3/asd.wav'
p832
F1323198621.1056571
sS'/media/archivio/trasmissioni/Mai dire cicletta/base/SIGLA 90\xc2\xb0 MINUTO.mp3'
p833
F1322500566.190083
sS'/media/archivio/trasmissioni/radiociclabile/SECONDA SERIA/7 antologia/Pearl Jam - Immortality(1).mp3'
p834
F1322509849.4068429
sS'/media/archivio/trasmissioni/caribbean vintage/puntata 11-11-11/06 Serenity.mp3'
p835
F1321641634.4133451
sS'/media/archivio/trasmissioni/OrcoTrio/Puntata2x8/Musica/Gorillaz - Five fourths.mp3'
p836
F1322779984.7634079
sS'/media/archivio/trasmissioni/all 90 long/Scaletta 2011 12 08/Effetti/Million Dollar Baby_OST.mp3'
p837
F1323379818.5743639
sS'/media/archivio/trasmissioni/(phi)^3/21nov/01 Is there a ghost _.mp3'
p838
F1321909461.3164361
sS"/media/archivio/trasmissioni/caribbean vintage/puntata 11-11-11/Yellow Dubmarine   'Something'.mp3"
p839
F1321643443.800683
sS'/media/archivio/trasmissioni/ultima mezzora leo/12/11 Blackbird 1.mp3'
p840
F1323905894.127913
sS'/media/archivio/trasmissioni/ScrapJazz/spool/gianluigi trovesi with rava/06 Traccia 6.wma'
p841
F1323212349.9925661
sS'/media/archivio/trasmissioni/powerchords/film/I_wanna_Rock - Lit-ZiplockVideo.mp3'
p842
F1323896572.9038329
sS'/media/archivio/trasmissioni/radiociclabile/mp3 radio/Malvina Reynolds - Little Boxes (Original theme).mp3'
p843
F1323716833.331264
sS'/media/archivio/trasmissioni/(phi)^3/5dic/Learn To Fly.mp3'
p844
F1323116752.839191
sS'/media/archivio/trasmissioni/caribbean vintage/c/1 -Jimmy Cliff   Let Your Yeah be Yeah.mp3'
p845
F1322852081.3409419
sS'/media/archivio/trasmissioni/Rapsodia/Rapsodia2.0/puntata queen 12-14-2011/Queen - Seven Seas Of Rhye [Top Of The Pops].mp3'
p846
F1323893928.76491
sS'/media/archivio/trasmissioni/GROOVIERA/22novembrewithandrew/10 - witness dub.mp3'
p847
F1321994762.367455
sS'/media/archivio/trasmissioni/Cinemando/13punt_23-10-2011/Lattimo_fuggente_carpe_diem.mp3'
p848
F1322071483.36502
sS'/media/archivio/trasmissioni/MONO/MONO 2011-12 - p.6 - 24.11.2011 - ULTIMA PUNTATA/Sottofondi/56-Bad Moon Rising.mp3'
p849
F1322156521.7570579
sS'/media/archivio/trasmissioni/GROOVIERA/22novembrewithandrew/11dargerdoom Old School.mp3'
p850
F1321995276.109647
sS'/media/archivio/trasmissioni/PLUG/2^STAGIONE/Puntata 2/JINGLE_SIGLA.mp3'
p851
F1321909689.88657
sS'/media/archivio/trasmissioni/powerchords/2011-12-14_ultimapuntata/ACDC - T.N.T..mp3'
p852
F1323899571.2428291
sS'/media/archivio/trasmissioni/powerchords/Basi Definitive/lynyrd1.mp3'
p853
F1323897745.4405389
sS'/media/archivio/trasmissioni/Alabama/programma 5/Adels   All By Myself (Johnny Burnette Cover).mp3'
p854
F1321381941.979286
sS'/media/archivio/trasmissioni/scrapjazz/NewScrapJazz/sestafelice/07 Blue.mp3'
p855
F1322608048.929765
sS'/media/archivio/trasmissioni/PLUG/2^STAGIONE/PLUG 8/goran bregovich - kalashnikov.mp3'
p856
F1323121760.8840809
sS'/media/archivio/trasmissioni/all 90 long/Scaletta 2011 11 24/Sottofondi/intro b berlinguer.mp3'
p857
F1322168610.53234
sS'/media/archivio/trasmissioni/Gli Spacciaserie/9a puntata bis/League - spezzoni/04_welcomedaAndre.ogg'
p858
F1322769236.4292951
sS"/media/archivio/trasmissioni/Alabama/programma 5/ITALIANI NON ESULTATE  MARIO MONTI E' L'ENNESIMO BURATTINO !.mp3"
p859
F1321380939.4298539
sS'/media/archivio/trasmissioni/ultima mezzora leo/10/03 Cradle and All.mp3'
p860
F1322435580.3540421
sS'/media/archivio/trasmissioni/caribbean vintage/c/Elio e Le Storie Tese - Banane Giganti Terkel Soundtrack.mp3'
p861
F1322850862.01792
sS'/media/archivio/trasmissioni/(phi)^3/28nov/03 Dies Irae.mp3'
p862
F1322513622.1175001
sS'/media/archivio/trasmissioni/GROOVIERA/6dic/09Disney inferno - Rancore & Dj Myke - Acustico EP (2010).mp3'
p863
F1323204583.9838791
sS'/media/archivio/trasmissioni/I DisGuidi/Puntata 12 - 14 Dicembre/12 - Legalize The Premier.mp3'
p864
F1323882446.7805271
sS'/media/archivio/trasmissioni/GROOVIERA/22novembrewithandrew/09I Changed My Mind (ft. The Poets.mp3'
p865
F1321994277.994426
sS'/media/archivio/trasmissioni/all 90 long/Scaletta 2011 11 24/Sottofondi/France.mp3'
p866
F1322168994.5430779
sS'/media/archivio/trasmissioni/radiociclabile/SECONDA SERIA/7 antologia/4. Mr. Bungle - None of Them Knew They Were Robots.mp3'
p867
F1322509385.68572
sS'/media/archivio/trasmissioni/SoFia/16a Pandoro&Panettone/01 - We Wish You A Merry Xmas.mp3'
p868
F1323640542.1711349
sS'/media/archivio/trasmissioni/OrcoTrio/Puntata2x7/Ultima Mezzorca/A Perfect Circle - Magdalena.mp3'
p869
F1322176922.8439839
sS'/media/archivio/trasmissioni/pendente/2011-12-03/Mario Incudine - Novumunnu-2.mp3'
p870
F1322931606.48419
sS'/media/archivio/trasmissioni/ultima mezzora mario/ultima/James Blunt - Back To Bedlam - 04 - Goodbye My Lover.mp3'
p871
F1323129455.018904
sS'/media/archivio/trasmissioni/powerchords/2011-12-07/Hanoi Rocks - Street Poetry.mp3'
p872
F1323294461.1968961
sS'/media/archivio/trasmissioni/Rapsodia/Rapsodia2.0/puntata 11-23-2011/Nuova cartella/Il vecchio conio.mp3'
p873
F1322075626.684655
sS"/media/archivio/trasmissioni/Pisa&Love/8 punt_27-11/Sottofondo Lettura - Comptine d'un autre ete.mp3"
p874
F1322424227.5141931
sS'/media/archivio/trasmissioni/Sfasciacarrozze/2011-11-27/One Dimensional Man - 02 - Tell me Marie.mp3'
p875
F1322417404.5356181
sS'/media/archivio/trasmissioni/Mai dire cicletta/2011-12-05/Rammstein - Du riechst so gut 98.mp3'
p876
F1323110267.1041391
sS'/media/archivio/trasmissioni/Cinemando/16punt_14-12-2011/Placebo - Where is My Mind (Fight Club).mp3'
p877
F1323889217.480901
sS'/media/archivio/trasmissioni/Bidoni/puntata 4/Gazosa - www.mipiacitu.mp3'
p878
F1323201570.7030561
sS'/media/archivio/trasmissioni/Politicazzi/PoliticazziDieci/PORNOla prof in piscina.mp3'
p879
F1323126358.928071
sS'/media/archivio/trasmissioni/powerchords/2011-12-14_ultimapuntata/Hole - Skinny Little Bitch.mp3'
p880
F1323895596.3256409
sS'/media/archivio/trasmissioni/Politicazzi/PoliticazziDieci/02-Black Sabbath-Paranoid.mp3'
p881
F1323125011.9778571
sS'/media/archivio/trasmissioni/ultima mezzora leo/12/06 Tear.ogg'
p882
F1323906895.474647
sS'/media/archivio/trasmissioni/Bidoni/Puntata 3/Charlemagne -- Act III- The Bloody Verdict Of Verden.mp3'
p883
F1321386464.7028699
sS'/media/archivio/trasmissioni/Politicazzi/PoliticazziDieci/08-Enrico Beruschi-Volevano Andare A Genova.mp3'
p884
F1323125482.5093729
sS'/media/archivio/trasmissioni/Gli Spacciaserie/9a puntata bis/League - spezzoni/sigla.ogg'
p885
F1322766885.608089
sS'/media/archivio/trasmissioni/radiociclabile/SECONDA SERIA/7 antologia/083) George Harrison - Got My Mind Set On You [January 1988].mp3'
p886
F1322508008.557657
sS'/media/archivio/trasmissioni/powerchords/Basi Definitive/sigla/siglapowerchords-19gen2011.mp3'
p887
F1322685225.449007
sS'/media/archivio/trasmissioni/(phi)^3/5dic/04 Holst_ The Planets, Op. 32, H 125.mp3'
p888
F1323118551.491333
sS'/media/archivio/trasmissioni/Ultima mezzora carlo/2011-12-04/Zero 7 - Home.mp3'
p889
F1323040931.0723209
sS'/media/archivio/trasmissioni/(phi)^3/21nov/bladerunner scena finale.mp3'
p890
F1321909299.1038799
sS'/media/archivio/trasmissioni/Politicazzi/PoliticazziDieci/01-Marlene Kuntz -Paolo anima salva.mp3'
p891
F1323127017.0196719
sS'/media/archivio/trasmissioni/MONO/MONO 2011-12 - p.6 - 24.11.2011 - ULTIMA PUNTATA/Sottofondi/35-Hey You.mp3'
p892
F1322155070.0571849
sS'/media/archivio/trasmissioni/Sfasciacarrozze/2011-12-11/La Sfasciasigla.mp3'
p893
F1323621300.9087529
sS'/media/archivio/trasmissioni/all 90 long/Scaletta 2011 12 01/Sottofondi/2001- A Space Odyssey Theme Song Music Video.mp3'
p894
F1322774563.1209619
sS'/media/archivio/trasmissioni/Rapsodia/1a punt/0-Queen - Italia   Milano 1984 - Bohemian Rhapsody - Live !!! - Copia.mp3'
p895
F1323893494.2031679
sS'/media/archivio/trasmissioni/SoFia/13a WarGame/canzoni/02 - Nanowar.mp3'
p896
F1321825657.9540589
sS'/media/archivio/trasmissioni/Politicazzi/PoliticazziDieci/05-Negramaro-Luna.mp3'
p897
F1323123768.57955
sS'/media/archivio/trasmissioni/all 90 long/Scaletta 2011 12 01/Sottofondi/Max Romeo & The Upsetters - I chase the Devil.mp3'
p898
F1322775412.7607701
sS'/media/archivio/trasmissioni/I DisGuidi/Puntata 12 - 14 Dicembre/The Muse - Time is Running Out.mp3'
p899
F1323883906.9204359
sS"/media/archivio/trasmissioni/all 90 long/Scaletta 2011 11 24/Sottofondi/Jane Birkin - Je t'aime moi non plus - 1969.mp3"
p900
F1322172382.4681959
sS'/media/archivio/trasmissioni/Gli Spacciaserie/9a puntata bis/League - spezzoni/00_intro.ogg'
p901
F1322767181.4870379
sS'/media/archivio/trasmissioni/Mai dire cicletta/2011-11-28/led zeppelin - Rock and roll.mp3'
p902
F1322502427.657656
sS'/media/archivio/trasmissioni/caribbean vintage/c/Dennis Bovell   Jazterpiece.mp3'
p903
F1322853685.269665
sS'/media/archivio/trasmissioni/OrcoTrio/Puntata2x8/Jingles/Sweet - The Ballroom Blitz .mp3'
p904
F1322780150.9340341
sS'/media/archivio/trasmissioni/(phi)^3/5dic/01 Chasing Pirates.mp3'
p905
F1323116898.3970039
sS'/media/archivio/trasmissioni/radiociclabile/SECONDA SERIA/7 antologia/6. Naked City - Speedfreaks.mp3.mp3'
p906
F1322509898.779511
sS'/media/archivio/trasmissioni/Pisa&Love/7 punt_20-11/Sigla iniziale - Secret Diary of a Call Girl.mp3'
p907
F1321819804.550524
sS'/media/archivio/trasmissioni/Ultima mezzora carlo/2011-11-30/09-09. Ave Maria.mp3'
p908
F1322697181.73089
sS"/media/archivio/trasmissioni/OrcoTrio/Puntata2x7/Musica/How Come You Don't Call Me Anymore-Prince.mp3"
p909
F1322174814.0722909
sS'/media/archivio/trasmissioni/OrcoTrio/Puntata2x7/Jingles/Sweet-Burning.mp3'
p910
F1322174562.2982099
sS'/media/archivio/trasmissioni/pendente/2011-11-19/Luna_F.Incudine_Gulisano.mp3'
p911
F1321718347.357105
sS'/media/archivio/trasmissioni/powerchords/2011-11-30/Blind Guardian - Barbara Ann.mp3'
p912
F1322689579.504096
sS'/media/archivio/trasmissioni/Sfasciacarrozze/2011-11-27/whiskey in the jar.mp3'
p913
F1322415924.8542509
sS'/media/archivio/trasmissioni/Pisa&Love/8 punt_27-11/3. Scrubs - JD lascia Danny n.2.mp3'
p914
F1322425206.915051
sS'/media/archivio/trasmissioni/(phi)^3/28nov/11 Cry A While.mp3'
p915
F1322511945.8419559
sS'/media/archivio/trasmissioni/powerchords/2011-12-07/Slayer - World Painted Blood.mp3'
p916
F1323291495.6139939
sS'/media/archivio/trasmissioni/I DisGuidi/Puntata 11 - 7 Dicembre.odt/David Guetta ft Flo-Rida & Nicki Minaj - Where Them Girls At  (Teaser).mp3'
p917
F1323279895.344811
sS'/media/archivio/trasmissioni/GROOVIERA/6dic/04THE CREATORS,FEAT EVIDENCE AND DJ BABU,HEART POUND..mp3'
p918
F1323203244.6251831
sS'/media/archivio/trasmissioni/ultima mezzora leo/12/04 Continuum.mp3'
p919
F1323905068.5211999
sS'/media/archivio/trasmissioni/pendente/2011-12-03/01 Clandestino.mp3'
p920
F1322930349.643306
sS'/media/archivio/trasmissioni/Cinemando/13punt_23-10-2011/jimmie_driftwoodthe_battle_of_new_orleans.mp3'
p921
F1322073588.6868761
sS'/media/archivio/trasmissioni/SoFia/13a WarGame/canzoni/sonic mayhem - audio_adrenaline.mp3'
p922
F1321826319.7697639
sS'/media/archivio/trasmissioni/ultima mezzora leo/11/01 World Sick.ogg'
p923
F1323301118.5222869
sS'/media/archivio/trasmissioni/Bidoni/Puntata 1/jingle/06 - Dancing nancies.mp3'
p924
F1323201696.3160419
sS'/media/archivio/trasmissioni/OrcoTrio/Puntata2x9/Musica/The Cure - Disintegration.mp3'
p925
F1323383422.954123
sS"/media/archivio/trasmissioni/Alabama/programma4/Adel's    Rock n Roll Star.mp3"
p926
F1321382848.8823619
sS'/media/archivio/trasmissioni/caribbean vintage/Puntata Colonne sonore/Dennis Brown   Sitting  Watching (HQ).mp3'
p927
F1322248002.0675271
sS'/media/archivio/trasmissioni/ultima mezzora leo/11/1-01 Swimming Field.mp3'
p928
F1323305114.375901
sS'/media/archivio/trasmissioni/Made in Italy/PUNK 2 radiocicletta/Bellicosi - Quanto Ti Amo.mp3'
p929
F1321376637.6397409
sS'/media/archivio/trasmissioni/Made in Italy/PUNK 2 radiocicletta/TAMPAX - police in the car ITA 88.mp3'
p930
F1321377320.7428069
sS"/media/archivio/trasmissioni/scrapjazz/NewScrapJazz/sestafelice/1958 - Ascenseur pour l'echafaud - Miles Davis/02 - Nuit Sur Les Champs-Elysees (Take 2).mp3"
p931
F1322606715.042259
sS'/media/archivio/trasmissioni/Sfasciacarrozze/2011-11-27/09 - Postmortem.mp3'
p932
F1322416525.286221
sS'/media/archivio/trasmissioni/caribbean vintage/c/5 - The Slickers   Johnny Too Bad.mp3'
p933
F1322852313.072793
sS'/media/archivio/trasmissioni/Bidoni/Puntata 1/jingle/XTC-Dear God Lyrics.mp3'
p934
F1323200590.6829801
sS'/media/archivio/trasmissioni/SoFia/16a Pandoro&Panettone/03 - Santa Claws Is Coming To Town.mp3'
p935
F1323640119.2246671
sS'/media/archivio/trasmissioni/MONO/MONO 2011-12 - p.6 - 24.11.2011 - ULTIMA PUNTATA/Varie Soundtrack/MEN IN BLACK - Will Smith - Men in Black.mp3'
p936
F1322154996.1728301
sS'/media/archivio/trasmissioni/radiociclabile/SECONDA SERIA/7 antologia/3. Orgia cartoon - GemBoy.mp3'
p937
F1322508762.493413
sS'/media/archivio/trasmissioni/Made in Italy/PUNK 2 radiocicletta/Negazione - Il Giorno del Sole.mp3'
p938
F1321380186.683301
sS'/media/archivio/trasmissioni/all 90 long/Scaletta 2011 12 08/05 Sleep Now in the Fire.mp3'
p939
F1323381366.8345449
sS'/media/archivio/trasmissioni/(phi)^3/21nov/01 Quando non ci sei.m4a'
p940
F1321907132.670316
sS'/media/archivio/trasmissioni/scrapjazz/quarta/Stan Getz Quartet/04 Theme For Emanuel.m4a'
p941
F1321398032.1240079
sS'/media/archivio/trasmissioni/(phi)^3/28nov/stateascoltandophi.wav'
p942
F1322513060.263608
sS'/media/archivio/trasmissioni/pendente/2011-11-19/Luna_Tinturia.mp3'
p943
F1321719321.8139451
sS'/media/archivio/trasmissioni/OrcoTrio/Puntata2x9/Jingles/The Cure - A Forest.mp3'
p944
F1323382456.3373621
sS"/media/archivio/trasmissioni/Alabama/programma4/07 nun t'affiss\xc3\xa0.mp3"
p945
F1322590230.6140389
sS'/media/archivio/trasmissioni/Gli Spacciaserie/8a puntata bis/Michael Bubl\xc3\xa9 - For Once in My Life.mp3'
p946
F1322163517.418334
sS'/media/archivio/trasmissioni/pendente/2011-12-03/iTALY IS A JOKE PER RADIO CICLETTA-2.wav'
p947
F1322929605.493613
sS'/media/archivio/trasmissioni/all 90 long/Scaletta 2011 12 08/02 - Marilyn Manson - The Beautiful People.mp3'
p948
F1323380457.491677
sS'/media/archivio/trasmissioni/caribbean vintage/puntata 11-11-11/05 - Gregory Isaacs - My Number One.mp3'
p949
F1321642851.1820011
sS'/media/archivio/trasmissioni/I DisGuidi/Puntata Tedesca - 30 Novembre/06-Hungry heart.mp3'
p950
F1322674813.3812411
sS"/media/archivio/trasmissioni/(phi)^3/21nov/2001 odissea nello spazio - L'uccisione di Hal.mp3"
p951
F1321908158.825588
sS'/media/archivio/trasmissioni/powerchords/Basi Definitive/zombie1.mp3'
p952
F1323896824.3560879
sS"/media/archivio/trasmissioni/ultima mezzora leo/11/02 'Round Midnight.ogg"
p953
F1323303254.982686
sS'/media/archivio/trasmissioni/MONO/MONO 2011-12 - p.6 - 24.11.2011 - ULTIMA PUNTATA/Varie Soundtrack/THE CRAFT - Love Spit love - How Soon Is Now.mp3'
p954
F1322156786.440398
sS'/media/archivio/trasmissioni/LabNova/attualit\xc3\xa0 n.3/Radiohead - Creep.mp3'
p955
F1321814080.1579599
sS'/media/archivio/trasmissioni/Ultima mezzora carlo/2011-12-04/01 Angel.mp3'
p956
F1323040360.707237
sS'/media/archivio/trasmissioni/LabNova/SEASON II/playlisy n.3/The Beatles [2009] Greatest Hits CDRip [Remastered][Bubanee]/10 all you need is love.mp3'
p957
F1322418518.5069871
sS'/media/archivio/trasmissioni/(phi)^3/28nov/Aria Sulla Quarta Corda.mp3'
p958
F1322513791.1846139
sS'/media/archivio/trasmissioni/I DisGuidi/Puntata 12 - 14 Dicembre/track01.ogg'
p959
F1323883911.2251699
sS"/media/archivio/trasmissioni/Rapsodia/Rapsodia2.0/puntata queen 12-14-2011/queen/Queen - 'Friends Will Be Friends'.mp3"
p960
F1323892333.830725
sS'/media/archivio/trasmissioni/PLUG/2^STAGIONE/PLUG 8/04 Gaviotes.wma'
p961
F1323121449.9562759
sS'/media/archivio/trasmissioni/OrcoTrio/Puntata2x7/Ultima Mezzorca/Brian Eno-By this river.mp3'
p962
F1322177758.3433089
sS'/media/archivio/trasmissioni/ultima mezzora leo/12/06 Avalanche.ogg'
p963
F1323905354.8835509
sS"/media/archivio/trasmissioni/caribbean vintage/c/The Reggae Movie pt1 Shaggy Oh Carolina,Buju Banton,Garnett Silk It's growing,Luciano.mp3"
p964
F1322855936.7475009
sS'/media/archivio/trasmissioni/all 90 long/Scaletta 2011 11 24/04 Camino de la Vida.mp3'
p965
F1322169202.264076
sS'/media/archivio/trasmissioni/radiociclabile/SECONDA SERIA/radui/50 - The Wombats - Kill The Director.mp3'
p966
F1323719627.8947401
sS'/media/archivio/trasmissioni/all 90 long/Scaletta 2011 11 24/02 - Sexy Boy.mp3'
p967
F1322170632.838804
sS'/media/archivio/trasmissioni/Sfasciacarrozze/2011-12-11/07 Black Hole Sun.mp3'
p968
F1323623899.345618
sS'/media/archivio/trasmissioni/SoFia/16a Pandoro&Panettone/Alicia - A Natale Puoi.mp3'
p969
F1323637955.394654
sS'/media/archivio/trasmissioni/Cinemando/13punt_23-10-2011/Piano_Concerto_No_5_in_E_flat_Emperor_Op_73_Adagio_un_poco_mosso.mp3'
p970
F1322074742.0507669
sS'/media/archivio/trasmissioni/Made in Italy/progressive italia/Alberto Radius - Nel ghetto.mp3'
p971
F1323194830.2641649
sS'/media/archivio/trasmissioni/Bidoni/puntata 4/Ivan Graziani (  Renato Zero) - Lanutella Di Tua Sorella (1995).mp3'
p972
F1323200147.315979
sS"/media/archivio/trasmissioni/Alabama/programma 6/Guns N' Roses   Shotgun Blues.mp3"
p973
F1322590994.0353889
sS'/media/archivio/trasmissioni/GROOVIERA/29nov/06The Beatnuts - Watch Out Now[HQ].mp3'
p974
F1322599051.5720451
sS'/media/archivio/trasmissioni/Gli Spacciaserie/8a puntata bis/Blink 182 - All The Small Things.mp3'
p975
F1322161864.983778
sS'/media/archivio/trasmissioni/(phi)^3/5dic/01 1896 R. Strauss - Also sprach Zar.mp3'
p976
F1323116509.249208
sS'/media/archivio/trasmissioni/Sfasciacarrozze/2011-12-11/foo fighters-let it die.mp3'
p977
F1323626223.841222
sS'/media/archivio/trasmissioni/caribbean vintage/c/Michael Prophet  Turn me Loose.mp3'
p978
F1322854222.539011
sS'/media/archivio/trasmissioni/radiociclabile/decima puntata/01b. sottofondo (11) - Copia.mp3'
p979
F1322509932.48928
sS'/media/archivio/trasmissioni/Sfasciacarrozze/2011-12-11/Soilwork - 01 - Rejection Role.mp3'
p980
F1323624664.4984989
sS'/media/archivio/trasmissioni/Made in Italy/PUNK 2 radiocicletta/A chi non beve birra dio neghi anche  l acqua.wmv.mp3'
p981
F1321379093.7741189
sS'/media/archivio/trasmissioni/OrcoTrio/Puntata2x7/Jingles/The Beatles-Strawberry Fields Forever.mp3'
p982
F1322176125.6244631
sS"/media/archivio/trasmissioni/Alabama/programma4/Adel's   Carinaavi.mp3"
p983
F1322591481.5109429
sS'/media/archivio/trasmissioni/all 90 long/Scaletta 2011 12 01/04 - The Universal.mp3'
p984
F1322776096.6005559
sS'/media/archivio/trasmissioni/Rapsodia/Rapsodia2.0/puntata 11-30-2011 freddy mercury/queen/Queen - somebody to love(3).mp3'
p985
F1322681785.806787
sS'/media/archivio/trasmissioni/Sfasciacarrozze/sottofondo/Metallica - 08 - Damage, Inc..mp3'
p986
F1323626461.137176
sS'/media/archivio/trasmissioni/Gli Spacciaserie/9a puntata bis/League - musica/Terraplane Sun - Hey Rat.mp3'
p987
F1322769732.3560619
sS"/media/archivio/trasmissioni/I DisGuidi/Puntata 11 - 7 Dicembre.odt/L'uomo di Monaco.mp3"
p988
F1323276817.2318251
sS'/media/archivio/trasmissioni/Pisa&Love/9 punt_4-12/6. Pearl Jam - Even Flow.mp3'
p989
F1323031765.7322559
sS'/media/archivio/trasmissioni/PLUG/1^STAGIONE/plug 5/SOTTOFONDO/Happy Up Here (Instrumental).mp3'
p990
F1322517124.6244249
sS'/media/archivio/trasmissioni/OrcoTrio/Puntata2x9/Musica/Nine Inch Nails - Beside You In Time.mp3'
p991
F1323385267.7263899
sS'/media/archivio/trasmissioni/I DisGuidi/Puntata 11 - 7 Dicembre.odt/07-Out in the street.mp3'
p992
F1323277757.6181469
sS'/media/archivio/trasmissioni/ultima mezzora mario/28-11-2011/Roberto Vecchioni - Dentro gli occhi.mp3'
p993
F1322523803.3827119
sS"/media/archivio/trasmissioni/Alabama/programma 5/maieutica   la fine  l'inizio  la fine.mp3"
p994
F1321382629.2257431
sS"/media/archivio/trasmissioni/Made in Italy/PUNK 2 radiocicletta/Peggio Punx-Ci Stanno Uccidendo 12'' EP-01-Moda.mp3"
p995
F1321378143.2906029
sS'/media/archivio/trasmissioni/powerchords/2011-12-07/Jack Rabbit Slim - Dragstrip.mp3'
p996
F1323295324.422806
sS'/media/archivio/trasmissioni/GROOVIERA/22novembrewithandrew/05A Tribe Called Quest - Beats, Rhymes And Life - 01 - Phony Rappers.mp3'
p997
F1321993083.691494
sS'/media/archivio/trasmissioni/powerchords/2011-12-07/Teatro degli orrori - A_Sangue_Freddo.mp3'
p998
F1323294075.269743
sS'/media/archivio/trasmissioni/Sfasciacarrozze/2011-12-4/06 - Rotolando verso sud.mp3'
p999
F1323016785.1633661
sS'/media/archivio/trasmissioni/Sfasciacarrozze/Panic Syndrome - Way To Dementia.mp3'
p1000
F1323622658.920996
sS"/media/archivio/trasmissioni/PLUG/2^STAGIONE/PLUG 7/Full Metal Jacket - Surfin' Bird.mp3"
p1001
F1322514378.52018
sS"/media/archivio/trasmissioni/Sfasciacarrozze/2011-12-11/18 - Sui giovani d'oggi ci scatarro su.mp3"
p1002
F1323625479.3439541
sS'/media/archivio/trasmissioni/Gli Spacciaserie/9a puntata bis/League - musica/Signal Hill Transmission - On and Off.mp3'
p1003
F1322770387.292335
sS'/media/archivio/trasmissioni/I DisGuidi/Puntata Tedesca - 30 Novembre/Cold Play - In My Place.mp3'
p1004
F1322674106.1140561
sS'/media/archivio/trasmissioni/Mai dire cicletta/2011-12-05/Metallica - Whiskey in the jar.mp3'
p1005
F1323108078.1148131
sS"/media/archivio/trasmissioni/Bidoni/Puntata 3/Teobaldi Rock - Odore d'inverno.mp3"
p1006
F1321385054.8120401
sS'/media/archivio/trasmissioni/Sfasciacarrozze/2011-12-4/La Sfasciasigla.mp3'
p1007
F1323021734.755358
sS'/media/archivio/trasmissioni/GROOVIERA/6dic/13 Cosa vuoi da me.mp3'
p1008
F1323205730.385432
sS'/media/archivio/trasmissioni/MONO/MONO 2011-12 - p.6 - 24.11.2011 - ULTIMA PUNTATA/Varie Rock/Bob Seger System - Lucifer.mp3'
p1009
F1322159380.0302999
sS'/media/archivio/trasmissioni/powerchords/Basi Definitive/sistem1.mp3'
p1010
F1323896262.4824059
sS'/media/archivio/trasmissioni/pendente/2011-12-03/Immigrant Punk.mp3'
p1011
F1322932575.347765
sS"/media/archivio/trasmissioni/caribbean vintage/Puntata Colonne sonore/Inner Circle with Jacob Miller 'We 'A' Rockers'.mp3"
p1012
F1322249097.0041111
sS'/media/archivio/trasmissioni/Sfasciacarrozze/2011-11-20/Queen - Innuendo - Innuendo.mp3'
p1013
F1321811318.306855
sS'/media/archivio/trasmissioni/Alabama/programma 5/PROMO ADELS   Red hot Sicily.mp3'
p1014
F1321381794.326798
sS'/media/archivio/trasmissioni/Rapsodia/Rapsodia2.0/puntata queen 12-14-2011/queen/Queen - We Will Rock You (Live At Wembley).mp3'
p1015
F1323893488.9721889
sS'/media/archivio/trasmissioni/GROOVIERA/6dic/(instrumental) Lauryn Hill  - Doo Wop (That Thing).mp3'
p1016
F1323205818.134727
sS"/media/archivio/trasmissioni/Rapsodia/Rapsodia2.0/puntata 11-30-2011 freddy mercury/queen/9. freddie mercury [mercoled\xc3\xac 30 novembre '11]/I want to break free - queen.mp3"
p1017
F1322682346.897151
sS'/media/archivio/trasmissioni/ultima mezzora leo/11/04 Tre Quarti Di Luna.mp3'
p1018
F1323304075.1521461
sS"/media/archivio/trasmissioni/OrcoTrio/Puntata2x8/Jingles/Zakk Wylde - Farm Fiddlin' .mp3"
p1019
F1322780962.124491
sS'/media/archivio/trasmissioni/SoFia/13a WarGame/suoni/Game_Over.mp3'
p1020
F1322430978.2508841
sS'/media/archivio/trasmissioni/ScrapJazz/spool/gianluigi trovesi with rava/02 Traccia 2.wma'
p1021
F1323209779.9827471
sS"/media/archivio/trasmissioni/(phi)^3/5dic/I'll fly away.mp3"
p1022
F1323119145.9590509
sS'/media/archivio/trasmissioni/GROOVIERA/29nov/09Clima Arido - 13 BEN - Equilibrio   14 - FREESTYLE Michelone Hard Core.mp3'
p1023
F1322600369.5113659
sS'/media/archivio/trasmissioni/SoFia/13a WarGame/canzoni/PIllar - Frontline.mp3'
p1024
F1321830000.2258401
sS'/media/archivio/trasmissioni/Politicazzi/sigle/bracardi/Bracardi - gianni pilo.mp3'
p1025
F1322520274.6750801
sS'/media/archivio/trasmissioni/PLUG/2^STAGIONE/PLUG 8/goran bregovich - mesecina.mp3'
p1026
F1323122267.879487
sS'/media/archivio/trasmissioni/radiociclabile/SECONDA SERIA/radui/Alan Sorrenti - Vorrei Incontrarti.mp3'
p1027
F1323719093.7529831
sS'/media/archivio/trasmissioni/Mai dire cicletta/2011-11-28/Drowning Pool  - Bodies.mp3'
p1028
F1322500298.5377171
sS'/media/archivio/trasmissioni/ultima mezzora leo/10/10 Summerbreeze.ogg'
p1029
F1322436309.731425
sS'/media/archivio/trasmissioni/OrcoTrio/Puntata2x9/Musica/Black Sabbath -  Black Sabbath.mp3'
p1030
F1323382831.7828169
sS'/media/archivio/trasmissioni/powerchords/2011-12-14_ultimapuntata/Cowboys From Hell - Pantera.mp3'
p1031
F1323897986.8609011
sS'/media/archivio/trasmissioni/Gli Spacciaserie/8a puntata bis/Cachao - A gozar con mi combo.mp3'
p1032
F1322167692.768786
sS'/media/archivio/trasmissioni/(phi)^3/28nov/06 Sick Sad Little World.mp3'
p1033
F1322513442.567611
sS'/media/archivio/trasmissioni/scrapjazz/street blues - tone dialing.MP3'
p1034
F1322002665.5453451
sS'/media/archivio/trasmissioni/Cinemando/16punt_14-12-2011/10_Various Artists - Stealing Fat.mp3'
p1035
F1323888200.6625769
sS'/media/archivio/trasmissioni/OrcoTrio/Puntata2x9/Musica/sigla_OrcoTrio.mp3'
p1036
F1323382383.7506931
sS'/media/archivio/trasmissioni/I DisGuidi/Jingle/Jingle di entrata/Sigla di Entrata.mp3'
p1037
F1323882114.793256
sS'/media/archivio/trasmissioni/Rapsodia/Rapsodia2.0/puntata 11-23-2011/Nuova cartella/fabrizio de andr\xc3\xa8 - amico fragile.mp3'
p1038
F1322080186.547519
sS'/media/archivio/trasmissioni/Ultima mezzora carlo/5 giugno 2011/BRIAN ENO - Deep Blue Day (TRAINSPOTTING soundtrack).mp3'
p1039
F1322697612.9303911
sS'/media/archivio/trasmissioni/I DisGuidi/Puntata 11 - 7 Dicembre.odt/Gira La Carta - Fabrizio De Andr\xc3\xa9.mp3'
p1040
F1323279381.7289841
sS'/media/archivio/trasmissioni/powerchords/Basi Definitive/sigla/sigla_stereo.mp3'
p1041
F1323894625.8928909
sS"/media/archivio/trasmissioni/ultima mezzora leo/12/03 Theresa's Sound-world.ogg"
p1042
F1323907222.6588781
sS'/media/archivio/trasmissioni/ScrapJazz/spool/Brous - Streamers (Extended Version).mp3'
p1043
F1323212240.0649199
sS'/media/archivio/trasmissioni/GROOVIERA/6dic/03Method Man ft Redman & Damian Marley - Lyrical 44.mp3'
p1044
F1323202997.545378
sS'/media/archivio/trasmissioni/all 90 long/Scaletta 2011 11 24/Sottofondi/Materazzi ha fatto gooal.mp3'
p1045
F1322172021.5122969
sS'/media/archivio/trasmissioni/powerchords/2011-12-14_ultimapuntata/Subsonica - Coriandoli A Natale.mp3'
p1046
F1323900070.0955999
sS'/media/archivio/trasmissioni/Bidoni/Puntata 1/jingle/Elio e Le Storie Tese - Cinquecento.mp3'
p1047
F1323201791.4085369
sS'/media/archivio/trasmissioni/Sfasciacarrozze/2011-11-20/07 avenged sevenfold - sidewinder.mp3'
p1048
F1321808341.4769809
sS'/media/archivio/trasmissioni/Gli Spacciaserie/jingle radio.mp3'
p1049
F1322769730.255753
sS'/media/archivio/trasmissioni/Sfasciacarrozze/sottofondo/Metallica - 04 - Welcome Home (Sanitarium).mp3'
p1050
F1323625574.9279799
sS'/media/archivio/trasmissioni/pendente/2011-12-03/Colonna Sonora Braveheart.mp3'
p1051
F1322931260.2219751
sS"/media/archivio/trasmissioni/Alabama/programma 6/PINO SCOTTO  CAPAREZZA 'GLI ARBITRI TI PICCHIANO'.mp3"
p1052
F1322590793.3738871
sS'/media/archivio/trasmissioni/Rapsodia/Rapsodia2.0/puntata 11-23-2011/Nuova cartella/Eric Clapton - Cocaine.mp3'
p1053
F1322078367.9471431
sS'/media/archivio/trasmissioni/Bidoni/Puntata 2/jingles/Michael Nyman - 05 - Here To There.mp3'
p1054
F1322594886.4532609
sS'/media/archivio/trasmissioni/powerchords/2011-11-30/Jolaurlo - Androide - Meccanica e Natura __ Electronic Music.mp3'
p1055
F1322686872.9057801
sS'/media/archivio/trasmissioni/MONO/MONO 2011-12 - p.6 - 24.11.2011 - ULTIMA PUNTATA/Varie Rock/Def Leppard - Rock of Ages.mp3'
p1056
F1322160989.170114
sS'/media/archivio/trasmissioni/Alabama/programma 3/07.mp3'
p1057
F1322592225.2107179
sS'/media/archivio/trasmissioni/ultima mezzora mario/21-11-2011/CCCP - Madre.mp3'
p1058
F1321918352.41714
sS'/media/archivio/trasmissioni/GROOVIERA/martedi15/09Kaos - Quello Che Sei.mp3'
p1059
F1321389699.6077421
sS'/media/archivio/trasmissioni/Cinemando/jungles/Mr Brown is Back in Town.mp3'
p1060
F1322073313.637599
sS'/media/archivio/trasmissioni/ultima mezzora leo/11/05 Il disertore.ogg'
p1061
F1323304236.5916929
sS'/media/archivio/trasmissioni/MONO/MONO 2011-12 - p.6 - 24.11.2011 - ULTIMA PUNTATA/Sottofondi/38-Walk Away.mp3'
p1062
F1322159437.665206
sS'/media/archivio/trasmissioni/Politicazzi/Politicazzi NONNA/Le Figlie Del Vento - Sugli Sugli Bane Bane (1973).mp3'
p1063
F1322520873.4974439
sS"/media/archivio/trasmissioni/Rapsodia/Rapsodia2.0/puntata queen 12-14-2011/queen/Queen - 'We Are The Champions' (Live At The Bowl).mp3"
p1064
F1323893713.1199889
sS'/media/archivio/trasmissioni/Gli Spacciaserie/9a puntata bis/League - spezzoni/02_auguriTaco.ogg'
p1065
F1322768162.010417
sS'/media/archivio/trasmissioni/Alabama/programma 3/010.mp3'
p1066
F1322592980.812567
sS'/media/archivio/trasmissioni/SoFia/14a Scarpa/12 Old Brown Shoe.ogg'
p1067
F1322429513.939182
sS'/media/archivio/trasmissioni/all 90 long/Scaletta 2011 12 01/Sottofondi/Star Wars Soundtrack.mp3'
p1068
F1322773743.4895411
sS'/media/archivio/trasmissioni/caribbean vintage/c/4 - Jimmy Cliff   The Harder They Come.mp3'
p1069
F1322851158.9930179
sS'/media/archivio/trasmissioni/Politicazzi/Politicazzi 8/04 Baustelle- Le rane.mp3'
p1070
F1321917515.068583
sS'/media/archivio/trasmissioni/Sfasciacarrozze/sottofondo/Metallica - 01 - Battery.mp3'
p1071
F1323622169.311851
sS'/media/archivio/trasmissioni/ultima mezzora leo/11/02 Naked as We Came.ogg'
p1072
F1323304582.2535009
sS"/media/archivio/trasmissioni/ultima mezzora mario/ultima/A Toys Orchestra - Job - 04 - Don't say goodbye.mp3"
p1073
F1323130103.882551
sS'/media/archivio/trasmissioni/Pisa&Love/7 punt_20-11/2. Harry ti presento Sally - Scena al ristorante.mp3'
p1074
F1321820634.8411479
sS'/media/archivio/trasmissioni/Made in Italy/PUNK 2 radiocicletta/Pensiero Stupendo.mp3'
p1075
F1322585995.1630211
sS'/media/archivio/trasmissioni/(phi)^3/28nov/Cowboy Bebop opening (Tank!).mp3'
p1076
F1322512985.5025799
sS'/media/archivio/trasmissioni/Sfasciacarrozze/2011-12-4/04 Samba Pa Ti.mp3'
p1077
F1323017298.744673
sS'/media/archivio/trasmissioni/Rapsodia/Rapsodia2.0/puntata 11-23-2011/Ligabue - Leggero (video clip).mp3'
p1078
F1322077586.279412
sS'/media/archivio/trasmissioni/radiociclabile/SECONDA SERIA/radui/10 La rumba degli scugnizzi.mp3'
p1079
F1323718519.505439
sS'/media/archivio/trasmissioni/OrcoTrio/Puntata2x8/Musica/fine_OrcoTrio.mp3'
p1080
F1322781113.4074659
sS'/media/archivio/trasmissioni/(phi)^3/21nov/Dark Star - Dialogo con la Bomba.mp3'
p1081
F1321908652.269381
sS'/media/archivio/trasmissioni/scrapjazz/NewScrapJazz/fondo/02 - 11, 12 & 13.mp3'
p1082
F1322000903.70209
sS'/media/archivio/trasmissioni/Mai dire cicletta/2011-11-21/CapaRezza - Vengo Dalla Luna.wma'
p1083
F1321895751.0186639
sS'/media/archivio/trasmissioni/(phi)^3/28nov/05 Mad World.mp3'
p1084
F1322514232.697027
sS"/media/archivio/trasmissioni/(phi)^3/5dic/John F. Kennedy's Moon Speech to Congress - May 25_ 1961.mp3"
p1085
F1323117073.3790901
sS'/media/archivio/trasmissioni/Made in Italy/progressive italia/Il rovescio della Medaglia - Il suono del silenzio.mp3'
p1086
F1323190614.173559
sS'/media/archivio/trasmissioni/ultima mezzora mario/21-11-2011/Niccol\xc3\xb2 Fabi - Quello che volevo.mp3'
p1087
F1321920424.415189
sS'/media/archivio/trasmissioni/I DisGuidi/Puntata Tedesca - 30 Novembre/We go together.mp3'
p1088
F1322674616.1743219
sS'/media/archivio/trasmissioni/Made in Italy/Made in Italy speciale New Wave/Pankow - I Don 39t Want To Be Nice.mp3'
p1089
F1321983665.2579219
sS'/media/archivio/trasmissioni/ultima mezzora mario/ultima/10 Goodbye Pork Pie Hat.mp3'
p1090
F1323127898.4718151
sS'/media/archivio/trasmissioni/radiociclabile/SECONDA SERIA/radui/Skiantos - Meglio un figlio ladro che un figlio frocio.mp3'
p1091
F1323717261.2098141
sS'/media/archivio/trasmissioni/Ultima mezzora carlo/2011-11-30/16 Lumi\xc3\xa8re.mp3'
p1092
F1322696471.7924399
sS'/media/archivio/trasmissioni/Cinemando/15punt_07-12-2011/10 - Tenacious D - Dude.mp3'
p1093
F1323282007.2813439
sS'/media/archivio/trasmissioni/powerchords/2011-11-30/Phinx - Italian Job.mp3'
p1094
F1322689256.953896
sS'/media/archivio/trasmissioni/Cinemando/16punt_14-12-2011/spezzoni/fight_club_discorso_tyler.mp3'
p1095
F1323885990.5933239
sS'/media/archivio/trasmissioni/Gli Spacciaserie/8a puntata bis/Van Morrison - Days Like This.mp3'
p1096
F1322168309.8853879
sS'/media/archivio/trasmissioni/powerchords/2011-12-14_ultimapuntata/David Bowie - Rebel Rebel.mp3'
p1097
F1323896527.2545791
sS'/media/archivio/trasmissioni/Cinemando/13punt_23-10-2011/The_Fields_Of_Athenry_Pete_St_Johnmpg.mp3'
p1098
F1322075025.6202099
sS'/media/archivio/trasmissioni/GROOVIERA/6dic/06Artificial Kid - La Verit\xc3\xa0 OFFICIAL VIDEOCLIP (StabbyoBoy, Danno (Colle der Fomento) e Dj Craim).mp3'
p1099
F1323203811.876265
sS'/media/archivio/trasmissioni/ultima mezzora mario/ultima/Ivan Graziani - Lugano addio.mp3'
p1100
F1323128552.742588
sS'/media/archivio/trasmissioni/pendente/basi pendente/04 Filia.mp3'
p1101
F1322927300.217051
sS'/media/archivio/trasmissioni/caribbean vintage/puntata 11-11-11/09 - The Tams - Be Young Be Foolish Be Happy  1970.mp3'
p1102
F1321646311.1117549
sS'/media/archivio/trasmissioni/ultima mezzora leo/12/03 Cry Me a River.ogg'
p1103
F1323904568.2107551
sS'/media/archivio/trasmissioni/Sfasciacarrozze/2011-12-11/10 - I Feel You.mp3'
p1104
F1323625860.9640429
sS'/media/archivio/trasmissioni/powerchords/film/las3.mp3'
p1105
F1322685461.7066491
sS"/media/archivio/trasmissioni/OrcoTrio/Puntata2x7/Jingles/Sweet- Rock 'n' Roll Disgrace.mp3"
p1106
F1322174317.227227
sS'/media/archivio/trasmissioni/(phi)^3/28nov/18 Sweet Home Alabama.mp3'
p1107
F1322512856.593092
sS'/media/archivio/trasmissioni/powerchords/2011-12-07/John Lee Hooker - I Put My Trust In You.mp3'
p1108
F1323292663.713974
sS'/media/archivio/trasmissioni/(phi)^3/5dic/1-03 Messa da Requiem (1995 Digital.mp3'
p1109
F1323116322.5469999
sS'/media/archivio/trasmissioni/Pisa&Love/8 punt_27-11/6. Tool - Prison Sex.mp3'
p1110
F1322427413.7988939
sS'/media/archivio/trasmissioni/Rapsodia/Rapsodia2.0/puntata 11-23-2011/Nuova cartella/John Cale - Dying On The Vine.mp3'
p1111
F1322077265.770093
sS'/media/archivio/trasmissioni/(phi)^3/21nov/13 Angel of Harlem.mp3'
p1112
F1321906678.3753419
sS'/media/archivio/trasmissioni/GROOVIERA/22novembrewithandrew/03Big L - Fall Back Feat. Kool G Rap - beatlike.com.mp3'
p1113
F1321992791.0810781
sS"/media/archivio/trasmissioni/ultima mezzora mario/ultima/12 - Franco Battiato - L'addio.mp3"
p1114
F1323128793.8924401
sS'/media/archivio/trasmissioni/Ultima mezzora carlo/2011-12-11/The Doors - The End (original).mp3'
p1115
F1323647119.2728601
sS'/media/archivio/trasmissioni/Alabama/programma 3/7.wav'
p1116
F1322592334.4789879
sS'/media/archivio/trasmissioni/pendente/2011-12-03/Braveheart - Colonna Sonora.mp3'
p1117
F1322931102.1281381
sS'/media/archivio/trasmissioni/Alabama/programma 6/Mama Africa Riddim 2010.mp3'
p1118
F1322590577.8569851
sS'/media/archivio/trasmissioni/Made in Italy/progressive italia/Area - Lelefante bianco(MAD).mp3'
p1119
F1323191583.632457
sS'/media/archivio/trasmissioni/Sfasciacarrozze/2011-11-20/candiria -03- without water.mp3'
p1120
F1321810612.604732
sS'/media/archivio/trasmissioni/PLUG/2^STAGIONE/PLUG 8/JINGLE_SIGLA.mp3'
p1121
F1323119504.8631051
sS"/media/archivio/trasmissioni/Rapsodia/Rapsodia2.0/puntata queen 12-14-2011/queen/Queen - 'Don't Stop Me Now'.mp3"
p1122
F1323890479.435148
sS'/media/archivio/trasmissioni/powerchords/2011-11-30/Sum 41 - Fat lip.mp3'
p1123
F1322685782.419595
sS'/media/archivio/trasmissioni/Mai dire cicletta/base/Song 2 Blur base.mp3'
p1124
F1323715830.3964679
sS'/media/archivio/trasmissioni/OrcoTrio/Puntata2x8/Musica/Queens Of The Stone Age - Millionaire.mp3'
p1125
F1322780551.300281
s.